(dp1
S'test'
p2
(lp3
(lp4
ccopy_reg
_reconstructor
p5
(cSample
Sample
p6
c__builtin__
object
p7
NtRp8
(dp9
S'channels'
p10
I2
sS'path'
p11
S'data/DSD100/Mixtures/Test/033 - Sambasevam Shanmugam - Kaathaadi/mixture.wav'
p12
sS'duration'
p13
F317.879456
sS'sample_rate'
p14
I44100
sbag5
(g6
g7
NtRp15
(dp16
g10
I2
sg11
S'data/DSD100/Mixtures/Test/034 - Secretariat - Over The Top/mixture.wav'
p17
sg13
F251.09587300000001
sg14
I44100
sbag5
(g6
g7
NtRp18
(dp19
g10
I2
sg11
S'data/DSD100/Mixtures/Test/035 - Signe Jakobsen - What Have You Done To Me/mixture.wav'
p20
sg13
F177.397324
sg14
I44100
sbag5
(g6
g7
NtRp21
(dp22
g10
I2
sg11
S'data/DSD100/Mixtures/Test/036 - Skelpolu - Resurrection/mixture.wav'
p23
sg13
F395.66292499999997
sg14
I44100
sbag5
(g6
g7
NtRp24
(dp25
g10
I2
sg11
S'data/DSD100/Mixtures/Test/037 - Speak Softly - Broken Man/mixture.wav'
p26
sg13
F253.16018099999999
sg14
I44100
sbag5
(g6
g7
NtRp27
(dp28
g10
I2
sg11
S"data/DSD100/Mixtures/Test/038 - Spike Mullings - Mike's Sulking/mixture.wav"
p29
sg13
F256.87498900000003
sg14
I44100
sbag5
(g6
g7
NtRp30
(dp31
g10
I2
sg11
S'data/DSD100/Mixtures/Test/022 - Johnny Lokke - Promises & Lies/mixture.wav'
p32
sg13
F286
sg14
I44100
sbag5
(g6
g7
NtRp33
(dp34
g10
I2
sg11
S'data/DSD100/Mixtures/Test/023 - Jokers, Jacks & Kings - Sea Of Leaves/mixture.wav'
p35
sg13
F191.651791
sg14
I44100
sbag5
(g6
g7
NtRp36
(dp37
g10
I2
sg11
S'data/DSD100/Mixtures/Test/024 - Leaf - Come Around/mixture.wav'
p38
sg13
F264.58036299999998
sg14
I44100
sbag5
(g6
g7
NtRp39
(dp40
g10
I2
sg11
S'data/DSD100/Mixtures/Test/025 - Leaf - Wicked/mixture.wav'
p41
sg13
F190.82142899999999
sg14
I44100
sbag5
(g6
g7
NtRp42
(dp43
g10
I2
sg11
S'data/DSD100/Mixtures/Test/026 - Louis Cressy Band - Good Time/mixture.wav'
p44
sg13
F292.82142900000002
sg14
I44100
sbag5
(g6
g7
NtRp45
(dp46
g10
I2
sg11
S'data/DSD100/Mixtures/Test/027 - M.E.R.C. Music - Knockout/mixture.wav'
p47
sg13
F270
sg14
I44100
sbag5
(g6
g7
NtRp48
(dp49
g10
I2
sg11
S'data/DSD100/Mixtures/Test/028 - Motor Tapes - Shore/mixture.wav'
p50
sg13
F246.72322
sg14
I44100
sbag5
(g6
g7
NtRp51
(dp52
g10
I2
sg11
S'data/DSD100/Mixtures/Test/029 - Nerve 9 - Pray For The Rain/mixture.wav'
p53
sg13
F343.71428600000002
sg14
I44100
sbag5
(g6
g7
NtRp54
(dp55
g10
I2
sg11
S'data/DSD100/Mixtures/Test/013 - Drumtracks - Ghost Bitch/mixture.wav'
p56
sg13
F357.09374100000002
sg14
I44100
sbag5
(g6
g7
NtRp57
(dp58
g10
I2
sg11
S'data/DSD100/Mixtures/Test/014 - Fergessen - Back From The Start/mixture.wav'
p59
sg13
F168.74553299999999
sg14
I44100
sbag5
(g6
g7
NtRp60
(dp61
g10
I2
sg11
S'data/DSD100/Mixtures/Test/015 - Fergessen - The Wind/mixture.wav'
p62
sg13
F192
sg14
I44100
sbag5
(g6
g7
NtRp63
(dp64
g10
I2
sg11
S'data/DSD100/Mixtures/Test/016 - Forkupines - Semantics/mixture.wav'
p65
sg13
F273.58483000000001
sg14
I44100
sbag5
(g6
g7
NtRp66
(dp67
g10
I2
sg11
S'data/DSD100/Mixtures/Test/017 - Girls Under Glass - We Feel Alright/mixture.wav'
p68
sg13
F317.28124700000001
sg14
I44100
sbag5
(g6
g7
NtRp69
(dp70
g10
I2
sg11
S'data/DSD100/Mixtures/Test/018 - Hollow Ground - Ill Fate/mixture.wav'
p71
sg13
F141.674104
sg14
I44100
sbag5
(g6
g7
NtRp72
(dp73
g10
I2
sg11
S'data/DSD100/Mixtures/Test/019 - James Elder & Mark M Thompson - The English Actor/mixture.wav'
p74
sg13
F205.47322
sg14
I44100
sbag5
(g6
g7
NtRp75
(dp76
g10
I2
sg11
S'data/DSD100/Mixtures/Test/020 - James May - Dont Let Go/mixture.wav'
p77
sg13
F242.14285699999999
sg14
I44100
sbag5
(g6
g7
NtRp78
(dp79
g10
I2
sg11
S'data/DSD100/Mixtures/Test/021 - James May - On The Line/mixture.wav'
p80
sg13
F256.272313
sg14
I44100
sbag5
(g6
g7
NtRp81
(dp82
g10
I2
sg11
S'data/DSD100/Mixtures/Test/030 - Patrick Talbot - A Reason To Leave/mixture.wav'
p83
sg13
F259.74553300000002
sg14
I44100
sbag5
(g6
g7
NtRp84
(dp85
g10
I2
sg11
S'data/DSD100/Mixtures/Test/039 - Swinging Steaks - Lost My Way/mixture.wav'
p86
sg13
F310.14734700000002
sg14
I44100
sbaa(lp87
g5
(g6
g7
NtRp88
(dp89
g10
I2
sg11
S'data/DSD100/Mixtures/Test/033 - Sambasevam Shanmugam - Kaathaadi/remainingmix.wav'
p90
sg13
F317.879456
sg14
I44100
sbag5
(g6
g7
NtRp91
(dp92
g10
I2
sg11
S'data/DSD100/Mixtures/Test/034 - Secretariat - Over The Top/remainingmix.wav'
p93
sg13
F251.09587300000001
sg14
I44100
sbag5
(g6
g7
NtRp94
(dp95
g10
I2
sg11
S'data/DSD100/Mixtures/Test/035 - Signe Jakobsen - What Have You Done To Me/remainingmix.wav'
p96
sg13
F177.397324
sg14
I44100
sbag5
(g6
g7
NtRp97
(dp98
g10
I2
sg11
S'data/DSD100/Mixtures/Test/036 - Skelpolu - Resurrection/remainingmix.wav'
p99
sg13
F395.66292499999997
sg14
I44100
sbag5
(g6
g7
NtRp100
(dp101
g10
I2
sg11
S'data/DSD100/Mixtures/Test/037 - Speak Softly - Broken Man/remainingmix.wav'
p102
sg13
F253.16018099999999
sg14
I44100
sbag5
(g6
g7
NtRp103
(dp104
g10
I2
sg11
S"data/DSD100/Mixtures/Test/038 - Spike Mullings - Mike's Sulking/remainingmix.wav"
p105
sg13
F256.87498900000003
sg14
I44100
sbag5
(g6
g7
NtRp106
(dp107
g10
I2
sg11
S'data/DSD100/Mixtures/Test/022 - Johnny Lokke - Promises & Lies/remainingmix.wav'
p108
sg13
F286
sg14
I44100
sbag5
(g6
g7
NtRp109
(dp110
g10
I2
sg11
S'data/DSD100/Mixtures/Test/023 - Jokers, Jacks & Kings - Sea Of Leaves/remainingmix.wav'
p111
sg13
F191.651791
sg14
I44100
sbag5
(g6
g7
NtRp112
(dp113
g10
I2
sg11
S'data/DSD100/Mixtures/Test/024 - Leaf - Come Around/remainingmix.wav'
p114
sg13
F264.58036299999998
sg14
I44100
sbag5
(g6
g7
NtRp115
(dp116
g10
I2
sg11
S'data/DSD100/Mixtures/Test/025 - Leaf - Wicked/remainingmix.wav'
p117
sg13
F190.82142899999999
sg14
I44100
sbag5
(g6
g7
NtRp118
(dp119
g10
I2
sg11
S'data/DSD100/Mixtures/Test/026 - Louis Cressy Band - Good Time/remainingmix.wav'
p120
sg13
F292.82142900000002
sg14
I44100
sbag5
(g6
g7
NtRp121
(dp122
g10
I2
sg11
S'data/DSD100/Mixtures/Test/027 - M.E.R.C. Music - Knockout/remainingmix.wav'
p123
sg13
F270
sg14
I44100
sbag5
(g6
g7
NtRp124
(dp125
g10
I2
sg11
S'data/DSD100/Mixtures/Test/028 - Motor Tapes - Shore/remainingmix.wav'
p126
sg13
F246.72322
sg14
I44100
sbag5
(g6
g7
NtRp127
(dp128
g10
I2
sg11
S'data/DSD100/Mixtures/Test/029 - Nerve 9 - Pray For The Rain/remainingmix.wav'
p129
sg13
F343.71428600000002
sg14
I44100
sbag5
(g6
g7
NtRp130
(dp131
g10
I2
sg11
S'data/DSD100/Mixtures/Test/013 - Drumtracks - Ghost Bitch/remainingmix.wav'
p132
sg13
F357.09374100000002
sg14
I44100
sbag5
(g6
g7
NtRp133
(dp134
g10
I2
sg11
S'data/DSD100/Mixtures/Test/014 - Fergessen - Back From The Start/remainingmix.wav'
p135
sg13
F168.74553299999999
sg14
I44100
sbag5
(g6
g7
NtRp136
(dp137
g10
I2
sg11
S'data/DSD100/Mixtures/Test/015 - Fergessen - The Wind/remainingmix.wav'
p138
sg13
F192
sg14
I44100
sbag5
(g6
g7
NtRp139
(dp140
g10
I2
sg11
S'data/DSD100/Mixtures/Test/016 - Forkupines - Semantics/remainingmix.wav'
p141
sg13
F273.58483000000001
sg14
I44100
sbag5
(g6
g7
NtRp142
(dp143
g10
I2
sg11
S'data/DSD100/Mixtures/Test/017 - Girls Under Glass - We Feel Alright/remainingmix.wav'
p144
sg13
F317.28124700000001
sg14
I44100
sbag5
(g6
g7
NtRp145
(dp146
g10
I2
sg11
S'data/DSD100/Mixtures/Test/018 - Hollow Ground - Ill Fate/remainingmix.wav'
p147
sg13
F141.674104
sg14
I44100
sbag5
(g6
g7
NtRp148
(dp149
g10
I2
sg11
S'data/DSD100/Mixtures/Test/019 - James Elder & Mark M Thompson - The English Actor/remainingmix.wav'
p150
sg13
F205.47322
sg14
I44100
sbag5
(g6
g7
NtRp151
(dp152
g10
I2
sg11
S'data/DSD100/Mixtures/Test/020 - James May - Dont Let Go/remainingmix.wav'
p153
sg13
F242.14285699999999
sg14
I44100
sbag5
(g6
g7
NtRp154
(dp155
g10
I2
sg11
S'data/DSD100/Mixtures/Test/021 - James May - On The Line/remainingmix.wav'
p156
sg13
F256.272313
sg14
I44100
sbag5
(g6
g7
NtRp157
(dp158
g10
I2
sg11
S'data/DSD100/Mixtures/Test/030 - Patrick Talbot - A Reason To Leave/remainingmix.wav'
p159
sg13
F259.74553300000002
sg14
I44100
sbag5
(g6
g7
NtRp160
(dp161
g10
I2
sg11
S'data/DSD100/Mixtures/Test/039 - Swinging Steaks - Lost My Way/remainingmix.wav'
p162
sg13
F310.14734700000002
sg14
I44100
sbaa(lp163
g5
(g6
g7
NtRp164
(dp165
g10
I2
sg11
S'data/DSD100/Sources/Test/033 - Sambasevam Shanmugam - Kaathaadi/drums.wav'
p166
sg13
F317.879456
sg14
I44100
sbag5
(g6
g7
NtRp167
(dp168
g10
I2
sg11
S'data/DSD100/Sources/Test/034 - Secretariat - Over The Top/drums.wav'
p169
sg13
F251.09587300000001
sg14
I44100
sbag5
(g6
g7
NtRp170
(dp171
g10
I2
sg11
S'data/DSD100/Sources/Test/035 - Signe Jakobsen - What Have You Done To Me/drums.wav'
p172
sg13
F177.397324
sg14
I44100
sbag5
(g6
g7
NtRp173
(dp174
g10
I2
sg11
S'data/DSD100/Sources/Test/036 - Skelpolu - Resurrection/drums.wav'
p175
sg13
F395.66292499999997
sg14
I44100
sbag5
(g6
g7
NtRp176
(dp177
g10
I2
sg11
S'data/DSD100/Sources/Test/037 - Speak Softly - Broken Man/drums.wav'
p178
sg13
F253.16018099999999
sg14
I44100
sbag5
(g6
g7
NtRp179
(dp180
g10
I2
sg11
S"data/DSD100/Sources/Test/038 - Spike Mullings - Mike's Sulking/drums.wav"
p181
sg13
F256.87498900000003
sg14
I44100
sbag5
(g6
g7
NtRp182
(dp183
g10
I2
sg11
S'data/DSD100/Sources/Test/022 - Johnny Lokke - Promises & Lies/drums.wav'
p184
sg13
F286
sg14
I44100
sbag5
(g6
g7
NtRp185
(dp186
g10
I2
sg11
S'data/DSD100/Sources/Test/023 - Jokers, Jacks & Kings - Sea Of Leaves/drums.wav'
p187
sg13
F191.651791
sg14
I44100
sbag5
(g6
g7
NtRp188
(dp189
g10
I2
sg11
S'data/DSD100/Sources/Test/024 - Leaf - Come Around/drums.wav'
p190
sg13
F264.58036299999998
sg14
I44100
sbag5
(g6
g7
NtRp191
(dp192
g10
I2
sg11
S'data/DSD100/Sources/Test/025 - Leaf - Wicked/drums.wav'
p193
sg13
F190.82142899999999
sg14
I44100
sbag5
(g6
g7
NtRp194
(dp195
g10
I2
sg11
S'data/DSD100/Sources/Test/026 - Louis Cressy Band - Good Time/drums.wav'
p196
sg13
F292.82142900000002
sg14
I44100
sbag5
(g6
g7
NtRp197
(dp198
g10
I2
sg11
S'data/DSD100/Sources/Test/027 - M.E.R.C. Music - Knockout/drums.wav'
p199
sg13
F270
sg14
I44100
sbag5
(g6
g7
NtRp200
(dp201
g10
I2
sg11
S'data/DSD100/Sources/Test/028 - Motor Tapes - Shore/drums.wav'
p202
sg13
F246.72322
sg14
I44100
sbag5
(g6
g7
NtRp203
(dp204
g10
I2
sg11
S'data/DSD100/Sources/Test/029 - Nerve 9 - Pray For The Rain/drums.wav'
p205
sg13
F343.71428600000002
sg14
I44100
sbag5
(g6
g7
NtRp206
(dp207
g10
I2
sg11
S'data/DSD100/Sources/Test/013 - Drumtracks - Ghost Bitch/drums.wav'
p208
sg13
F357.09374100000002
sg14
I44100
sbag5
(g6
g7
NtRp209
(dp210
g10
I2
sg11
S'data/DSD100/Sources/Test/014 - Fergessen - Back From The Start/drums.wav'
p211
sg13
F168.74553299999999
sg14
I44100
sbag5
(g6
g7
NtRp212
(dp213
g10
I2
sg11
S'data/DSD100/Sources/Test/015 - Fergessen - The Wind/drums.wav'
p214
sg13
F192
sg14
I44100
sbag5
(g6
g7
NtRp215
(dp216
g10
I2
sg11
S'data/DSD100/Sources/Test/016 - Forkupines - Semantics/drums.wav'
p217
sg13
F273.58483000000001
sg14
I44100
sbag5
(g6
g7
NtRp218
(dp219
g10
I2
sg11
S'data/DSD100/Sources/Test/017 - Girls Under Glass - We Feel Alright/drums.wav'
p220
sg13
F317.28124700000001
sg14
I44100
sbag5
(g6
g7
NtRp221
(dp222
g10
I2
sg11
S'data/DSD100/Sources/Test/018 - Hollow Ground - Ill Fate/drums.wav'
p223
sg13
F141.674104
sg14
I44100
sbag5
(g6
g7
NtRp224
(dp225
g10
I2
sg11
S'data/DSD100/Sources/Test/019 - James Elder & Mark M Thompson - The English Actor/drums.wav'
p226
sg13
F205.47322
sg14
I44100
sbag5
(g6
g7
NtRp227
(dp228
g10
I2
sg11
S'data/DSD100/Sources/Test/020 - James May - Dont Let Go/drums.wav'
p229
sg13
F242.14285699999999
sg14
I44100
sbag5
(g6
g7
NtRp230
(dp231
g10
I2
sg11
S'data/DSD100/Sources/Test/021 - James May - On The Line/drums.wav'
p232
sg13
F256.272313
sg14
I44100
sbag5
(g6
g7
NtRp233
(dp234
g10
I2
sg11
S'data/DSD100/Sources/Test/030 - Patrick Talbot - A Reason To Leave/drums.wav'
p235
sg13
F259.74553300000002
sg14
I44100
sbag5
(g6
g7
NtRp236
(dp237
g10
I2
sg11
S'data/DSD100/Sources/Test/039 - Swinging Steaks - Lost My Way/drums.wav'
p238
sg13
F310.14734700000002
sg14
I44100
sbaasS'train_sup'
p239
(lp240
(lp241
g5
(g6
g7
NtRp242
(dp243
g10
I2
sg11
S'data/DSD100/Mixtures/Dev/051 - AM Contra - Heart Peripheral/mixture.wav'
p244
sg13
F210.10576
sg14
I44100
sbag5
(g6
g7
NtRp245
(dp246
g10
I2
sg11
S'data/DSD100/Mixtures/Dev/052 - ANiMAL - Easy Tiger/mixture.wav'
p247
sg13
F205.65789100000001
sg14
I44100
sbag5
(g6
g7
NtRp248
(dp249
g10
I2
sg11
S"data/DSD100/Mixtures/Dev/053 - Actions - Devil's Words/mixture.wav"
p250
sg13
F196.80768699999999
sg14
I44100
sbag5
(g6
g7
NtRp251
(dp252
g10
I2
sg11
S'data/DSD100/Mixtures/Dev/054 - Actions - South Of The Water/mixture.wav'
p253
sg13
F176.80287999999999
sg14
I44100
sbag5
(g6
g7
NtRp254
(dp255
g10
I2
sg11
S"data/DSD100/Mixtures/Dev/055 - Angels In Amplifiers - I'm Alright/mixture.wav"
p256
sg13
F179.59374099999999
sg14
I44100
sbag5
(g6
g7
NtRp257
(dp258
g10
I2
sg11
S'data/DSD100/Mixtures/Dev/056 - Arise - Run Run Run/mixture.wav'
p259
sg13
F219.39285699999999
sg14
I44100
sbag5
(g6
g7
NtRp260
(dp261
g10
I2
sg11
S'data/DSD100/Mixtures/Dev/057 - BKS - Bulldozer/mixture.wav'
p262
sg13
F337.04018100000002
sg14
I44100
sbag5
(g6
g7
NtRp263
(dp264
g10
I2
sg11
S"data/DSD100/Mixtures/Dev/058 - Ben Carrigan - We'll Talk About It All Tonight/mixture.wav"
p265
sg13
F254.91070300000001
sg14
I44100
sbag5
(g6
g7
NtRp266
(dp267
g10
I2
sg11
S'data/DSD100/Mixtures/Dev/094 - Titanium - Haunted Age/mixture.wav'
p268
sg13
F248.28879800000001
sg14
I44100
sbag5
(g6
g7
NtRp269
(dp270
g10
I2
sg11
S'data/DSD100/Mixtures/Dev/095 - Traffic Experiment - Once More (With Feeling)/mixture.wav'
p271
sg13
F435.262585
sg14
I44100
sbag5
(g6
g7
NtRp272
(dp273
g10
I2
sg11
S'data/DSD100/Mixtures/Dev/096 - Triviul - Angelsaint/mixture.wav'
p274
sg13
F236.89922899999999
sg14
I44100
sbag5
(g6
g7
NtRp275
(dp276
g10
I2
sg11
S'data/DSD100/Mixtures/Dev/097 - Triviul feat. The Fiend - Widow/mixture.wav'
p277
sg13
F235.10968299999999
sg14
I44100
sbag5
(g6
g7
NtRp278
(dp279
g10
I2
sg11
S'data/DSD100/Mixtures/Dev/098 - Wall Of Death - Femme/mixture.wav'
p280
sg13
F239.11607699999999
sg14
I44100
sbag5
(g6
g7
NtRp281
(dp282
g10
I2
sg11
S'data/DSD100/Mixtures/Dev/099 - Young Griffo - Blood To Bone/mixture.wav'
p283
sg13
F254.583741
sg14
I44100
sbag5
(g6
g7
NtRp284
(dp285
g10
I2
sg11
S'data/DSD100/Mixtures/Dev/100 - Young Griffo - Pennies/mixture.wav'
p286
sg13
F277.99446699999999
sg14
I44100
sbag5
(g6
g7
NtRp287
(dp288
g10
I2
sg11
S'data/DSD100/Mixtures/Dev/084 - Secretariat - Borderline/mixture.wav'
p289
sg13
F286.84562399999999
sg14
I44100
sbag5
(g6
g7
NtRp290
(dp291
g10
I2
sg11
S'data/DSD100/Mixtures/Dev/085 - Side Effects Project - Sing With Me/mixture.wav'
p292
sg13
F243.68303900000001
sg14
I44100
sbag5
(g6
g7
NtRp293
(dp294
g10
I2
sg11
S'data/DSD100/Mixtures/Dev/086 - Skelpolu - Human Mistakes/mixture.wav'
p295
sg13
F324.68571400000002
sg14
I44100
sbag5
(g6
g7
NtRp296
(dp297
g10
I2
sg11
S'data/DSD100/Mixtures/Dev/087 - Skelpolu - Together Alone/mixture.wav'
p298
sg13
F326.000023
sg14
I44100
sbag5
(g6
g7
NtRp299
(dp300
g10
I2
sg11
S'data/DSD100/Mixtures/Dev/088 - Speak Softly - Like Horses/mixture.wav'
p301
sg13
F312.66666700000002
sg14
I44100
sbag5
(g6
g7
NtRp302
(dp303
g10
I2
sg11
S'data/DSD100/Mixtures/Dev/089 - St Vitus - Word Gets Around/mixture.wav'
p304
sg13
F247.20981900000001
sg14
I44100
sbag5
(g6
g7
NtRp305
(dp306
g10
I2
sg11
S'data/DSD100/Mixtures/Dev/090 - The Doppler Shift - Atrophy/mixture.wav'
p307
sg13
F331.44197300000002
sg14
I44100
sbag5
(g6
g7
NtRp308
(dp309
g10
I2
sg11
S'data/DSD100/Mixtures/Dev/091 - The Long Wait - Dark Horses/mixture.wav'
p310
sg13
F305.72093000000001
sg14
I44100
sbag5
(g6
g7
NtRp311
(dp312
g10
I2
sg11
S'data/DSD100/Mixtures/Dev/092 - The Sunshine Garcia Band - For I Am The Moon/mixture.wav'
p313
sg13
F320.29666700000001
sg14
I44100
sbag5
(g6
g7
NtRp314
(dp315
g10
I2
sg11
S"data/DSD100/Mixtures/Dev/076 - Little Chicago's Finest - My Own/mixture.wav"
p316
sg13
F281.61160999999998
sg14
I44100
sbag5
(g6
g7
NtRp317
(dp318
g10
I2
sg11
S'data/DSD100/Mixtures/Dev/077 - Lyndsey Ollard - Catching Up/mixture.wav'
p319
sg13
F227.42857100000001
sg14
I44100
sbag5
(g6
g7
NtRp320
(dp321
g10
I2
sg11
S'data/DSD100/Mixtures/Dev/078 - Moosmusic - Big Dummy Shake/mixture.wav'
p322
sg13
F198.85714300000001
sg14
I44100
sbag5
(g6
g7
NtRp323
(dp324
g10
I2
sg11
S'data/DSD100/Mixtures/Dev/079 - Mu - Too Bright/mixture.wav'
p325
sg13
F272.16516999999999
sg14
I44100
sbag5
(g6
g7
NtRp326
(dp327
g10
I2
sg11
S'data/DSD100/Mixtures/Dev/080 - North To Alaska - All The Same/mixture.wav'
p328
sg13
F248.14285699999999
sg14
I44100
sbag5
(g6
g7
NtRp329
(dp330
g10
I2
sg11
S'data/DSD100/Mixtures/Dev/081 - Patrick Talbot - Set Me Free/mixture.wav'
p331
sg13
F289.98213199999998
sg14
I44100
sbag5
(g6
g7
NtRp332
(dp333
g10
I2
sg11
S'data/DSD100/Mixtures/Dev/082 - Punkdisco - Oral Hygiene/mixture.wav'
p334
sg13
F221.598209
sg14
I44100
sbag5
(g6
g7
NtRp335
(dp336
g10
I2
sg11
S'data/DSD100/Mixtures/Dev/068 - Giselle - Moss/mixture.wav'
p337
sg13
F201.88838999999999
sg14
I44100
sbag5
(g6
g7
NtRp338
(dp339
g10
I2
sg11
S'data/DSD100/Mixtures/Dev/069 - Hollow Ground - Left Blind/mixture.wav'
p340
sg13
F159.29018099999999
sg14
I44100
sbag5
(g6
g7
NtRp341
(dp342
g10
I2
sg11
S'data/DSD100/Mixtures/Dev/070 - James May - All Souls Moon/mixture.wav'
p343
sg13
F221.04464899999999
sg14
I44100
sbag5
(g6
g7
NtRp344
(dp345
g10
I2
sg11
S'data/DSD100/Mixtures/Dev/071 - James May - If You Say/mixture.wav'
p346
sg13
F258.5
sg14
I44100
sbag5
(g6
g7
NtRp347
(dp348
g10
I2
sg11
S'data/DSD100/Mixtures/Dev/072 - Jay Menon - Through My Eyes/mixture.wav'
p349
sg13
F253.35714300000001
sg14
I44100
sbag5
(g6
g7
NtRp350
(dp351
g10
I2
sg11
S'data/DSD100/Mixtures/Dev/073 - Johnny Lokke - Whisper To A Scream/mixture.wav'
p352
sg13
F255.51786799999999
sg14
I44100
sbag5
(g6
g7
NtRp353
(dp354
g10
I2
sg11
S"data/DSD100/Mixtures/Dev/074 - Juliet's Rescue - Heartbeats/mixture.wav"
p355
sg13
F267.651791
sg14
I44100
sbag5
(g6
g7
NtRp356
(dp357
g10
I2
sg11
S'data/DSD100/Mixtures/Dev/059 - Black Bloc - If You Want Success/mixture.wav'
p358
sg13
F398.73215399999998
sg14
I44100
sbag5
(g6
g7
NtRp359
(dp360
g10
I2
sg11
S'data/DSD100/Mixtures/Dev/067 - Georgia Wonder - Siren/mixture.wav'
p361
sg13
F430.37501099999997
sg14
I44100
sbag5
(g6
g7
NtRp362
(dp363
g10
I2
sg11
S'data/DSD100/Mixtures/Dev/075 - Leaf - Summerghost/mixture.wav'
p364
sg13
F232
sg14
I44100
sbag5
(g6
g7
NtRp365
(dp366
g10
I2
sg11
S'data/DSD100/Mixtures/Dev/083 - Remember December - C U Next Time/mixture.wav'
p367
sg13
F242.713469
sg14
I44100
sbag5
(g6
g7
NtRp368
(dp369
g10
I2
sg11
S'data/DSD100/Mixtures/Dev/093 - Tim Taler - Stalker/mixture.wav'
p370
sg13
F237.818186
sg14
I44100
sbag5
(g6
g7
NtRp371
(dp372
g10
I2
sg11
S'data/DSD100/Mixtures/Dev/060 - Buitraker - Revo X/mixture.wav'
p373
sg13
F275.825896
sg14
I44100
sbag5
(g6
g7
NtRp374
(dp375
g10
I2
sg11
S'data/DSD100/Mixtures/Dev/061 - Chris Durban - Celebrate/mixture.wav'
p376
sg13
F301.78571399999998
sg14
I44100
sbag5
(g6
g7
NtRp377
(dp378
g10
I2
sg11
S'data/DSD100/Mixtures/Dev/062 - Cristina Vane - So Easy/mixture.wav'
p379
sg13
F254.13392300000001
sg14
I44100
sbag5
(g6
g7
NtRp380
(dp381
g10
I2
sg11
S'data/DSD100/Mixtures/Dev/063 - Detsky Sad - Walkie Talkie/mixture.wav'
p382
sg13
F190.48213200000001
sg14
I44100
sbag5
(g6
g7
NtRp383
(dp384
g10
I2
sg11
S'data/DSD100/Mixtures/Dev/064 - Enda Reilly - Cur An Long Ag Seol/mixture.wav'
p385
sg13
F186.99553299999999
sg14
I44100
sbag5
(g6
g7
NtRp386
(dp387
g10
I2
sg11
S'data/DSD100/Mixtures/Dev/065 - Fergessen - Nos Palpitants/mixture.wav'
p388
sg13
F198.41070300000001
sg14
I44100
sbag5
(g6
g7
NtRp389
(dp390
g10
I2
sg11
S'data/DSD100/Mixtures/Dev/066 - Flags - 54/mixture.wav'
p391
sg13
F315.34374100000002
sg14
I44100
sbaa(lp392
g5
(g6
g7
NtRp393
(dp394
g10
I2
sg11
S'data/DSD100/Mixtures/Dev/051 - AM Contra - Heart Peripheral/remainingmix.wav'
p395
sg13
F210.10576
sg14
I44100
sbag5
(g6
g7
NtRp396
(dp397
g10
I2
sg11
S'data/DSD100/Mixtures/Dev/052 - ANiMAL - Easy Tiger/remainingmix.wav'
p398
sg13
F205.65789100000001
sg14
I44100
sbag5
(g6
g7
NtRp399
(dp400
g10
I2
sg11
S"data/DSD100/Mixtures/Dev/053 - Actions - Devil's Words/remainingmix.wav"
p401
sg13
F196.80768699999999
sg14
I44100
sbag5
(g6
g7
NtRp402
(dp403
g10
I2
sg11
S'data/DSD100/Mixtures/Dev/054 - Actions - South Of The Water/remainingmix.wav'
p404
sg13
F176.80287999999999
sg14
I44100
sbag5
(g6
g7
NtRp405
(dp406
g10
I2
sg11
S"data/DSD100/Mixtures/Dev/055 - Angels In Amplifiers - I'm Alright/remainingmix.wav"
p407
sg13
F179.59374099999999
sg14
I44100
sbag5
(g6
g7
NtRp408
(dp409
g10
I2
sg11
S'data/DSD100/Mixtures/Dev/056 - Arise - Run Run Run/remainingmix.wav'
p410
sg13
F219.39285699999999
sg14
I44100
sbag5
(g6
g7
NtRp411
(dp412
g10
I2
sg11
S'data/DSD100/Mixtures/Dev/057 - BKS - Bulldozer/remainingmix.wav'
p413
sg13
F337.04018100000002
sg14
I44100
sbag5
(g6
g7
NtRp414
(dp415
g10
I2
sg11
S"data/DSD100/Mixtures/Dev/058 - Ben Carrigan - We'll Talk About It All Tonight/remainingmix.wav"
p416
sg13
F254.91070300000001
sg14
I44100
sbag5
(g6
g7
NtRp417
(dp418
g10
I2
sg11
S'data/DSD100/Mixtures/Dev/094 - Titanium - Haunted Age/remainingmix.wav'
p419
sg13
F248.28879800000001
sg14
I44100
sbag5
(g6
g7
NtRp420
(dp421
g10
I2
sg11
S'data/DSD100/Mixtures/Dev/095 - Traffic Experiment - Once More (With Feeling)/remainingmix.wav'
p422
sg13
F435.262585
sg14
I44100
sbag5
(g6
g7
NtRp423
(dp424
g10
I2
sg11
S'data/DSD100/Mixtures/Dev/096 - Triviul - Angelsaint/remainingmix.wav'
p425
sg13
F236.89922899999999
sg14
I44100
sbag5
(g6
g7
NtRp426
(dp427
g10
I2
sg11
S'data/DSD100/Mixtures/Dev/097 - Triviul feat. The Fiend - Widow/remainingmix.wav'
p428
sg13
F235.10968299999999
sg14
I44100
sbag5
(g6
g7
NtRp429
(dp430
g10
I2
sg11
S'data/DSD100/Mixtures/Dev/098 - Wall Of Death - Femme/remainingmix.wav'
p431
sg13
F239.11607699999999
sg14
I44100
sbag5
(g6
g7
NtRp432
(dp433
g10
I2
sg11
S'data/DSD100/Mixtures/Dev/099 - Young Griffo - Blood To Bone/remainingmix.wav'
p434
sg13
F254.583741
sg14
I44100
sbag5
(g6
g7
NtRp435
(dp436
g10
I2
sg11
S'data/DSD100/Mixtures/Dev/100 - Young Griffo - Pennies/remainingmix.wav'
p437
sg13
F277.99446699999999
sg14
I44100
sbag5
(g6
g7
NtRp438
(dp439
g10
I2
sg11
S'data/DSD100/Mixtures/Dev/084 - Secretariat - Borderline/remainingmix.wav'
p440
sg13
F286.84562399999999
sg14
I44100
sbag5
(g6
g7
NtRp441
(dp442
g10
I2
sg11
S'data/DSD100/Mixtures/Dev/085 - Side Effects Project - Sing With Me/remainingmix.wav'
p443
sg13
F243.68303900000001
sg14
I44100
sbag5
(g6
g7
NtRp444
(dp445
g10
I2
sg11
S'data/DSD100/Mixtures/Dev/086 - Skelpolu - Human Mistakes/remainingmix.wav'
p446
sg13
F324.68571400000002
sg14
I44100
sbag5
(g6
g7
NtRp447
(dp448
g10
I2
sg11
S'data/DSD100/Mixtures/Dev/087 - Skelpolu - Together Alone/remainingmix.wav'
p449
sg13
F326.000023
sg14
I44100
sbag5
(g6
g7
NtRp450
(dp451
g10
I2
sg11
S'data/DSD100/Mixtures/Dev/088 - Speak Softly - Like Horses/remainingmix.wav'
p452
sg13
F312.66666700000002
sg14
I44100
sbag5
(g6
g7
NtRp453
(dp454
g10
I2
sg11
S'data/DSD100/Mixtures/Dev/089 - St Vitus - Word Gets Around/remainingmix.wav'
p455
sg13
F247.20981900000001
sg14
I44100
sbag5
(g6
g7
NtRp456
(dp457
g10
I2
sg11
S'data/DSD100/Mixtures/Dev/090 - The Doppler Shift - Atrophy/remainingmix.wav'
p458
sg13
F331.44197300000002
sg14
I44100
sbag5
(g6
g7
NtRp459
(dp460
g10
I2
sg11
S'data/DSD100/Mixtures/Dev/091 - The Long Wait - Dark Horses/remainingmix.wav'
p461
sg13
F305.72093000000001
sg14
I44100
sbag5
(g6
g7
NtRp462
(dp463
g10
I2
sg11
S'data/DSD100/Mixtures/Dev/092 - The Sunshine Garcia Band - For I Am The Moon/remainingmix.wav'
p464
sg13
F320.29666700000001
sg14
I44100
sbag5
(g6
g7
NtRp465
(dp466
g10
I2
sg11
S"data/DSD100/Mixtures/Dev/076 - Little Chicago's Finest - My Own/remainingmix.wav"
p467
sg13
F281.61160999999998
sg14
I44100
sbag5
(g6
g7
NtRp468
(dp469
g10
I2
sg11
S'data/DSD100/Mixtures/Dev/077 - Lyndsey Ollard - Catching Up/remainingmix.wav'
p470
sg13
F227.42857100000001
sg14
I44100
sbag5
(g6
g7
NtRp471
(dp472
g10
I2
sg11
S'data/DSD100/Mixtures/Dev/078 - Moosmusic - Big Dummy Shake/remainingmix.wav'
p473
sg13
F198.85714300000001
sg14
I44100
sbag5
(g6
g7
NtRp474
(dp475
g10
I2
sg11
S'data/DSD100/Mixtures/Dev/079 - Mu - Too Bright/remainingmix.wav'
p476
sg13
F272.16516999999999
sg14
I44100
sbag5
(g6
g7
NtRp477
(dp478
g10
I2
sg11
S'data/DSD100/Mixtures/Dev/080 - North To Alaska - All The Same/remainingmix.wav'
p479
sg13
F248.14285699999999
sg14
I44100
sbag5
(g6
g7
NtRp480
(dp481
g10
I2
sg11
S'data/DSD100/Mixtures/Dev/081 - Patrick Talbot - Set Me Free/remainingmix.wav'
p482
sg13
F289.98213199999998
sg14
I44100
sbag5
(g6
g7
NtRp483
(dp484
g10
I2
sg11
S'data/DSD100/Mixtures/Dev/082 - Punkdisco - Oral Hygiene/remainingmix.wav'
p485
sg13
F221.598209
sg14
I44100
sbag5
(g6
g7
NtRp486
(dp487
g10
I2
sg11
S'data/DSD100/Mixtures/Dev/068 - Giselle - Moss/remainingmix.wav'
p488
sg13
F201.88838999999999
sg14
I44100
sbag5
(g6
g7
NtRp489
(dp490
g10
I2
sg11
S'data/DSD100/Mixtures/Dev/069 - Hollow Ground - Left Blind/remainingmix.wav'
p491
sg13
F159.29018099999999
sg14
I44100
sbag5
(g6
g7
NtRp492
(dp493
g10
I2
sg11
S'data/DSD100/Mixtures/Dev/070 - James May - All Souls Moon/remainingmix.wav'
p494
sg13
F221.04464899999999
sg14
I44100
sbag5
(g6
g7
NtRp495
(dp496
g10
I2
sg11
S'data/DSD100/Mixtures/Dev/071 - James May - If You Say/remainingmix.wav'
p497
sg13
F258.5
sg14
I44100
sbag5
(g6
g7
NtRp498
(dp499
g10
I2
sg11
S'data/DSD100/Mixtures/Dev/072 - Jay Menon - Through My Eyes/remainingmix.wav'
p500
sg13
F253.35714300000001
sg14
I44100
sbag5
(g6
g7
NtRp501
(dp502
g10
I2
sg11
S'data/DSD100/Mixtures/Dev/073 - Johnny Lokke - Whisper To A Scream/remainingmix.wav'
p503
sg13
F255.51786799999999
sg14
I44100
sbag5
(g6
g7
NtRp504
(dp505
g10
I2
sg11
S"data/DSD100/Mixtures/Dev/074 - Juliet's Rescue - Heartbeats/remainingmix.wav"
p506
sg13
F267.651791
sg14
I44100
sbag5
(g6
g7
NtRp507
(dp508
g10
I2
sg11
S'data/DSD100/Mixtures/Dev/059 - Black Bloc - If You Want Success/remainingmix.wav'
p509
sg13
F398.73215399999998
sg14
I44100
sbag5
(g6
g7
NtRp510
(dp511
g10
I2
sg11
S'data/DSD100/Mixtures/Dev/067 - Georgia Wonder - Siren/remainingmix.wav'
p512
sg13
F430.37501099999997
sg14
I44100
sbag5
(g6
g7
NtRp513
(dp514
g10
I2
sg11
S'data/DSD100/Mixtures/Dev/075 - Leaf - Summerghost/remainingmix.wav'
p515
sg13
F232
sg14
I44100
sbag5
(g6
g7
NtRp516
(dp517
g10
I2
sg11
S'data/DSD100/Mixtures/Dev/083 - Remember December - C U Next Time/remainingmix.wav'
p518
sg13
F242.713469
sg14
I44100
sbag5
(g6
g7
NtRp519
(dp520
g10
I2
sg11
S'data/DSD100/Mixtures/Dev/093 - Tim Taler - Stalker/remainingmix.wav'
p521
sg13
F237.818186
sg14
I44100
sbag5
(g6
g7
NtRp522
(dp523
g10
I2
sg11
S'data/DSD100/Mixtures/Dev/060 - Buitraker - Revo X/remainingmix.wav'
p524
sg13
F275.825896
sg14
I44100
sbag5
(g6
g7
NtRp525
(dp526
g10
I2
sg11
S'data/DSD100/Mixtures/Dev/061 - Chris Durban - Celebrate/remainingmix.wav'
p527
sg13
F301.78571399999998
sg14
I44100
sbag5
(g6
g7
NtRp528
(dp529
g10
I2
sg11
S'data/DSD100/Mixtures/Dev/062 - Cristina Vane - So Easy/remainingmix.wav'
p530
sg13
F254.13392300000001
sg14
I44100
sbag5
(g6
g7
NtRp531
(dp532
g10
I2
sg11
S'data/DSD100/Mixtures/Dev/063 - Detsky Sad - Walkie Talkie/remainingmix.wav'
p533
sg13
F190.48213200000001
sg14
I44100
sbag5
(g6
g7
NtRp534
(dp535
g10
I2
sg11
S'data/DSD100/Mixtures/Dev/064 - Enda Reilly - Cur An Long Ag Seol/remainingmix.wav'
p536
sg13
F186.99553299999999
sg14
I44100
sbag5
(g6
g7
NtRp537
(dp538
g10
I2
sg11
S'data/DSD100/Mixtures/Dev/065 - Fergessen - Nos Palpitants/remainingmix.wav'
p539
sg13
F198.41070300000001
sg14
I44100
sbag5
(g6
g7
NtRp540
(dp541
g10
I2
sg11
S'data/DSD100/Mixtures/Dev/066 - Flags - 54/remainingmix.wav'
p542
sg13
F315.34374100000002
sg14
I44100
sbaa(lp543
g5
(g6
g7
NtRp544
(dp545
g10
I2
sg11
S'data/DSD100/Sources/Dev/051 - AM Contra - Heart Peripheral/drums.wav'
p546
sg13
F210.10576
sg14
I44100
sbag5
(g6
g7
NtRp547
(dp548
g10
I2
sg11
S'data/DSD100/Sources/Dev/052 - ANiMAL - Easy Tiger/drums.wav'
p549
sg13
F205.65789100000001
sg14
I44100
sbag5
(g6
g7
NtRp550
(dp551
g10
I2
sg11
S"data/DSD100/Sources/Dev/053 - Actions - Devil's Words/drums.wav"
p552
sg13
F196.80768699999999
sg14
I44100
sbag5
(g6
g7
NtRp553
(dp554
g10
I2
sg11
S'data/DSD100/Sources/Dev/054 - Actions - South Of The Water/drums.wav'
p555
sg13
F176.80287999999999
sg14
I44100
sbag5
(g6
g7
NtRp556
(dp557
g10
I2
sg11
S"data/DSD100/Sources/Dev/055 - Angels In Amplifiers - I'm Alright/drums.wav"
p558
sg13
F179.59374099999999
sg14
I44100
sbag5
(g6
g7
NtRp559
(dp560
g10
I2
sg11
S'data/DSD100/Sources/Dev/056 - Arise - Run Run Run/drums.wav'
p561
sg13
F219.39285699999999
sg14
I44100
sbag5
(g6
g7
NtRp562
(dp563
g10
I2
sg11
S'data/DSD100/Sources/Dev/057 - BKS - Bulldozer/drums.wav'
p564
sg13
F337.04018100000002
sg14
I44100
sbag5
(g6
g7
NtRp565
(dp566
g10
I2
sg11
S"data/DSD100/Sources/Dev/058 - Ben Carrigan - We'll Talk About It All Tonight/drums.wav"
p567
sg13
F254.91070300000001
sg14
I44100
sbag5
(g6
g7
NtRp568
(dp569
g10
I2
sg11
S'data/DSD100/Sources/Dev/094 - Titanium - Haunted Age/drums.wav'
p570
sg13
F248.28879800000001
sg14
I44100
sbag5
(g6
g7
NtRp571
(dp572
g10
I2
sg11
S'data/DSD100/Sources/Dev/095 - Traffic Experiment - Once More (With Feeling)/drums.wav'
p573
sg13
F435.262585
sg14
I44100
sbag5
(g6
g7
NtRp574
(dp575
g10
I2
sg11
S'data/DSD100/Sources/Dev/096 - Triviul - Angelsaint/drums.wav'
p576
sg13
F236.89922899999999
sg14
I44100
sbag5
(g6
g7
NtRp577
(dp578
g10
I2
sg11
S'data/DSD100/Sources/Dev/097 - Triviul feat. The Fiend - Widow/drums.wav'
p579
sg13
F235.10968299999999
sg14
I44100
sbag5
(g6
g7
NtRp580
(dp581
g10
I2
sg11
S'data/DSD100/Sources/Dev/098 - Wall Of Death - Femme/drums.wav'
p582
sg13
F239.11607699999999
sg14
I44100
sbag5
(g6
g7
NtRp583
(dp584
g10
I2
sg11
S'data/DSD100/Sources/Dev/099 - Young Griffo - Blood To Bone/drums.wav'
p585
sg13
F254.583741
sg14
I44100
sbag5
(g6
g7
NtRp586
(dp587
g10
I2
sg11
S'data/DSD100/Sources/Dev/100 - Young Griffo - Pennies/drums.wav'
p588
sg13
F277.99446699999999
sg14
I44100
sbag5
(g6
g7
NtRp589
(dp590
g10
I2
sg11
S'data/DSD100/Sources/Dev/084 - Secretariat - Borderline/drums.wav'
p591
sg13
F286.84562399999999
sg14
I44100
sbag5
(g6
g7
NtRp592
(dp593
g10
I2
sg11
S'data/DSD100/Sources/Dev/085 - Side Effects Project - Sing With Me/drums.wav'
p594
sg13
F243.68303900000001
sg14
I44100
sbag5
(g6
g7
NtRp595
(dp596
g10
I2
sg11
S'data/DSD100/Sources/Dev/086 - Skelpolu - Human Mistakes/drums.wav'
p597
sg13
F324.68571400000002
sg14
I44100
sbag5
(g6
g7
NtRp598
(dp599
g10
I2
sg11
S'data/DSD100/Sources/Dev/087 - Skelpolu - Together Alone/drums.wav'
p600
sg13
F326.000023
sg14
I44100
sbag5
(g6
g7
NtRp601
(dp602
g10
I2
sg11
S'data/DSD100/Sources/Dev/088 - Speak Softly - Like Horses/drums.wav'
p603
sg13
F312.66666700000002
sg14
I44100
sbag5
(g6
g7
NtRp604
(dp605
g10
I2
sg11
S'data/DSD100/Sources/Dev/089 - St Vitus - Word Gets Around/drums.wav'
p606
sg13
F247.20981900000001
sg14
I44100
sbag5
(g6
g7
NtRp607
(dp608
g10
I2
sg11
S'data/DSD100/Sources/Dev/090 - The Doppler Shift - Atrophy/drums.wav'
p609
sg13
F331.44197300000002
sg14
I44100
sbag5
(g6
g7
NtRp610
(dp611
g10
I2
sg11
S'data/DSD100/Sources/Dev/091 - The Long Wait - Dark Horses/drums.wav'
p612
sg13
F305.72093000000001
sg14
I44100
sbag5
(g6
g7
NtRp613
(dp614
g10
I2
sg11
S'data/DSD100/Sources/Dev/092 - The Sunshine Garcia Band - For I Am The Moon/drums.wav'
p615
sg13
F320.29666700000001
sg14
I44100
sbag5
(g6
g7
NtRp616
(dp617
g10
I2
sg11
S"data/DSD100/Sources/Dev/076 - Little Chicago's Finest - My Own/drums.wav"
p618
sg13
F281.61160999999998
sg14
I44100
sbag5
(g6
g7
NtRp619
(dp620
g10
I2
sg11
S'data/DSD100/Sources/Dev/077 - Lyndsey Ollard - Catching Up/drums.wav'
p621
sg13
F227.42857100000001
sg14
I44100
sbag5
(g6
g7
NtRp622
(dp623
g10
I2
sg11
S'data/DSD100/Sources/Dev/078 - Moosmusic - Big Dummy Shake/drums.wav'
p624
sg13
F198.85714300000001
sg14
I44100
sbag5
(g6
g7
NtRp625
(dp626
g10
I2
sg11
S'data/DSD100/Sources/Dev/079 - Mu - Too Bright/drums.wav'
p627
sg13
F272.16516999999999
sg14
I44100
sbag5
(g6
g7
NtRp628
(dp629
g10
I2
sg11
S'data/DSD100/Sources/Dev/080 - North To Alaska - All The Same/drums.wav'
p630
sg13
F248.14285699999999
sg14
I44100
sbag5
(g6
g7
NtRp631
(dp632
g10
I2
sg11
S'data/DSD100/Sources/Dev/081 - Patrick Talbot - Set Me Free/drums.wav'
p633
sg13
F289.98213199999998
sg14
I44100
sbag5
(g6
g7
NtRp634
(dp635
g10
I2
sg11
S'data/DSD100/Sources/Dev/082 - Punkdisco - Oral Hygiene/drums.wav'
p636
sg13
F221.598209
sg14
I44100
sbag5
(g6
g7
NtRp637
(dp638
g10
I2
sg11
S'data/DSD100/Sources/Dev/068 - Giselle - Moss/drums.wav'
p639
sg13
F201.88838999999999
sg14
I44100
sbag5
(g6
g7
NtRp640
(dp641
g10
I2
sg11
S'data/DSD100/Sources/Dev/069 - Hollow Ground - Left Blind/drums.wav'
p642
sg13
F159.29018099999999
sg14
I44100
sbag5
(g6
g7
NtRp643
(dp644
g10
I2
sg11
S'data/DSD100/Sources/Dev/070 - James May - All Souls Moon/drums.wav'
p645
sg13
F221.04464899999999
sg14
I44100
sbag5
(g6
g7
NtRp646
(dp647
g10
I2
sg11
S'data/DSD100/Sources/Dev/071 - James May - If You Say/drums.wav'
p648
sg13
F258.5
sg14
I44100
sbag5
(g6
g7
NtRp649
(dp650
g10
I2
sg11
S'data/DSD100/Sources/Dev/072 - Jay Menon - Through My Eyes/drums.wav'
p651
sg13
F253.35714300000001
sg14
I44100
sbag5
(g6
g7
NtRp652
(dp653
g10
I2
sg11
S'data/DSD100/Sources/Dev/073 - Johnny Lokke - Whisper To A Scream/drums.wav'
p654
sg13
F255.51786799999999
sg14
I44100
sbag5
(g6
g7
NtRp655
(dp656
g10
I2
sg11
S"data/DSD100/Sources/Dev/074 - Juliet's Rescue - Heartbeats/drums.wav"
p657
sg13
F267.651791
sg14
I44100
sbag5
(g6
g7
NtRp658
(dp659
g10
I2
sg11
S'data/DSD100/Sources/Dev/059 - Black Bloc - If You Want Success/drums.wav'
p660
sg13
F398.73215399999998
sg14
I44100
sbag5
(g6
g7
NtRp661
(dp662
g10
I2
sg11
S'data/DSD100/Sources/Dev/067 - Georgia Wonder - Siren/drums.wav'
p663
sg13
F430.37501099999997
sg14
I44100
sbag5
(g6
g7
NtRp664
(dp665
g10
I2
sg11
S'data/DSD100/Sources/Dev/075 - Leaf - Summerghost/drums.wav'
p666
sg13
F232
sg14
I44100
sbag5
(g6
g7
NtRp667
(dp668
g10
I2
sg11
S'data/DSD100/Sources/Dev/083 - Remember December - C U Next Time/drums.wav'
p669
sg13
F242.713469
sg14
I44100
sbag5
(g6
g7
NtRp670
(dp671
g10
I2
sg11
S'data/DSD100/Sources/Dev/093 - Tim Taler - Stalker/drums.wav'
p672
sg13
F237.818186
sg14
I44100
sbag5
(g6
g7
NtRp673
(dp674
g10
I2
sg11
S'data/DSD100/Sources/Dev/060 - Buitraker - Revo X/drums.wav'
p675
sg13
F275.825896
sg14
I44100
sbag5
(g6
g7
NtRp676
(dp677
g10
I2
sg11
S'data/DSD100/Sources/Dev/061 - Chris Durban - Celebrate/drums.wav'
p678
sg13
F301.78571399999998
sg14
I44100
sbag5
(g6
g7
NtRp679
(dp680
g10
I2
sg11
S'data/DSD100/Sources/Dev/062 - Cristina Vane - So Easy/drums.wav'
p681
sg13
F254.13392300000001
sg14
I44100
sbag5
(g6
g7
NtRp682
(dp683
g10
I2
sg11
S'data/DSD100/Sources/Dev/063 - Detsky Sad - Walkie Talkie/drums.wav'
p684
sg13
F190.48213200000001
sg14
I44100
sbag5
(g6
g7
NtRp685
(dp686
g10
I2
sg11
S'data/DSD100/Sources/Dev/064 - Enda Reilly - Cur An Long Ag Seol/drums.wav'
p687
sg13
F186.99553299999999
sg14
I44100
sbag5
(g6
g7
NtRp688
(dp689
g10
I2
sg11
S'data/DSD100/Sources/Dev/065 - Fergessen - Nos Palpitants/drums.wav'
p690
sg13
F198.41070300000001
sg14
I44100
sbag5
(g6
g7
NtRp691
(dp692
g10
I2
sg11
S'data/DSD100/Sources/Dev/066 - Flags - 54/drums.wav'
p693
sg13
F315.34374100000002
sg14
I44100
sbaasS'valid'
p694
(lp695
(lp696
g5
(g6
g7
NtRp697
(dp698
g10
I2
sg11
S'data/DSD100/Mixtures/Test/001 - ANiMAL - Clinic A/mixture.wav'
p699
sg13
F238.049116
sg14
I44100
sbag5
(g6
g7
NtRp700
(dp701
g10
I2
sg11
S'data/DSD100/Mixtures/Test/002 - ANiMAL - Rockshow/mixture.wav'
p702
sg13
F165.696417
sg14
I44100
sbag5
(g6
g7
NtRp703
(dp704
g10
I2
sg11
S'data/DSD100/Mixtures/Test/003 - Actions - One Minute Smile/mixture.wav'
p705
sg13
F163.57210900000001
sg14
I44100
sbag5
(g6
g7
NtRp706
(dp707
g10
I2
sg11
S'data/DSD100/Mixtures/Test/004 - Al James - Schoolboy Facination/mixture.wav'
p708
sg13
F200.52678
sg14
I44100
sbag5
(g6
g7
NtRp709
(dp710
g10
I2
sg11
S'data/DSD100/Mixtures/Test/005 - Angela Thomas Wade - Milk Cow Blues/mixture.wav'
p711
sg13
F211.08929699999999
sg14
I44100
sbag5
(g6
g7
NtRp712
(dp713
g10
I2
sg11
S'data/DSD100/Mixtures/Test/006 - Atlantis Bound - It Was My Fault For Waiting/mixture.wav'
p714
sg13
F268.23659900000001
sg14
I44100
sbag5
(g6
g7
NtRp715
(dp716
g10
I2
sg11
S'data/DSD100/Mixtures/Test/007 - BKS - Too Much/mixture.wav'
p717
sg13
F220.124989
sg14
I44100
sbag5
(g6
g7
NtRp718
(dp719
g10
I2
sg11
S'data/DSD100/Mixtures/Test/008 - Bill Chudziak - Children Of No-one/mixture.wav'
p720
sg13
F230.93303900000001
sg14
I44100
sbag5
(g6
g7
NtRp721
(dp722
g10
I2
sg11
S'data/DSD100/Mixtures/Test/009 - Bobby Nobody - Stitch Up/mixture.wav'
p723
sg13
F221.25
sg14
I44100
sbag5
(g6
g7
NtRp724
(dp725
g10
I2
sg11
S'data/DSD100/Mixtures/Test/010 - Carlos Gonzalez - A Place For Us/mixture.wav'
p726
sg13
F250.21875299999999
sg14
I44100
sbag5
(g6
g7
NtRp727
(dp728
g10
I2
sg11
S'data/DSD100/Mixtures/Test/011 - Cnoc An Tursa - Bannockburn/mixture.wav'
p729
sg13
F294.70088399999997
sg14
I44100
sbag5
(g6
g7
NtRp730
(dp731
g10
I2
sg11
S'data/DSD100/Mixtures/Test/012 - Dark Ride - Burning Bridges/mixture.wav'
p732
sg13
F232.848209
sg14
I44100
sbag5
(g6
g7
NtRp733
(dp734
g10
I2
sg11
S'data/DSD100/Mixtures/Test/040 - The Long Wait - Back Home To Blue/mixture.wav'
p735
sg13
F260.64800500000001
sg14
I44100
sbag5
(g6
g7
NtRp736
(dp737
g10
I2
sg11
S'data/DSD100/Mixtures/Test/041 - The Mountaineering Club - Mallory/mixture.wav'
p738
sg13
F244.45981900000001
sg14
I44100
sbag5
(g6
g7
NtRp739
(dp740
g10
I2
sg11
S"data/DSD100/Mixtures/Test/042 - The Wrong'Uns - Rothko/mixture.wav"
p741
sg13
F202.33927399999999
sg14
I44100
sbag5
(g6
g7
NtRp742
(dp743
g10
I2
sg11
S'data/DSD100/Mixtures/Test/043 - Timboz - Pony/mixture.wav'
p744
sg13
F253.04873000000001
sg14
I44100
sbag5
(g6
g7
NtRp745
(dp746
g10
I2
sg11
S'data/DSD100/Mixtures/Test/044 - Tom McKenzie - Directions/mixture.wav'
p747
sg13
F175.852676
sg14
I44100
sbag5
(g6
g7
NtRp748
(dp749
g10
I2
sg11
S'data/DSD100/Mixtures/Test/045 - Traffic Experiment - Sirens/mixture.wav'
p750
sg13
F421.45943299999999
sg14
I44100
sbag5
(g6
g7
NtRp751
(dp752
g10
I2
sg11
S'data/DSD100/Mixtures/Test/046 - Triviul - Dorothy/mixture.wav'
p753
sg13
F187.55786800000001
sg14
I44100
sbag5
(g6
g7
NtRp754
(dp755
g10
I2
sg11
S'data/DSD100/Mixtures/Test/047 - Voelund - Comfort Lives In Belief/mixture.wav'
p756
sg13
F210.09523799999999
sg14
I44100
sbag5
(g6
g7
NtRp757
(dp758
g10
I2
sg11
S'data/DSD100/Mixtures/Test/048 - We Fell From The Sky - Not You/mixture.wav'
p759
sg13
F207.897324
sg14
I44100
sbag5
(g6
g7
NtRp760
(dp761
g10
I2
sg11
S'data/DSD100/Mixtures/Test/049 - Young Griffo - Facade/mixture.wav'
p762
sg13
F168.05356
sg14
I44100
sbag5
(g6
g7
NtRp763
(dp764
g10
I2
sg11
S'data/DSD100/Mixtures/Test/050 - Zeno - Signs/mixture.wav'
p765
sg13
F234.38392300000001
sg14
I44100
sbag5
(g6
g7
NtRp766
(dp767
g10
I2
sg11
S"data/DSD100/Mixtures/Test/031 - Phre The Eon - Everybody's Falling Apart/mixture.wav"
p768
sg13
F224.41963699999999
sg14
I44100
sbag5
(g6
g7
NtRp769
(dp770
g10
I2
sg11
S'data/DSD100/Mixtures/Test/032 - Raft Monk - Tiring/mixture.wav'
p771
sg13
F212.24553299999999
sg14
I44100
sbaa(lp772
g5
(g6
g7
NtRp773
(dp774
g10
I2
sg11
S'data/DSD100/Mixtures/Test/001 - ANiMAL - Clinic A/remainingmix.wav'
p775
sg13
F238.049116
sg14
I44100
sbag5
(g6
g7
NtRp776
(dp777
g10
I2
sg11
S'data/DSD100/Mixtures/Test/002 - ANiMAL - Rockshow/remainingmix.wav'
p778
sg13
F165.696417
sg14
I44100
sbag5
(g6
g7
NtRp779
(dp780
g10
I2
sg11
S'data/DSD100/Mixtures/Test/003 - Actions - One Minute Smile/remainingmix.wav'
p781
sg13
F163.57210900000001
sg14
I44100
sbag5
(g6
g7
NtRp782
(dp783
g10
I2
sg11
S'data/DSD100/Mixtures/Test/004 - Al James - Schoolboy Facination/remainingmix.wav'
p784
sg13
F200.52678
sg14
I44100
sbag5
(g6
g7
NtRp785
(dp786
g10
I2
sg11
S'data/DSD100/Mixtures/Test/005 - Angela Thomas Wade - Milk Cow Blues/remainingmix.wav'
p787
sg13
F211.08929699999999
sg14
I44100
sbag5
(g6
g7
NtRp788
(dp789
g10
I2
sg11
S'data/DSD100/Mixtures/Test/006 - Atlantis Bound - It Was My Fault For Waiting/remainingmix.wav'
p790
sg13
F268.23659900000001
sg14
I44100
sbag5
(g6
g7
NtRp791
(dp792
g10
I2
sg11
S'data/DSD100/Mixtures/Test/007 - BKS - Too Much/remainingmix.wav'
p793
sg13
F220.124989
sg14
I44100
sbag5
(g6
g7
NtRp794
(dp795
g10
I2
sg11
S'data/DSD100/Mixtures/Test/008 - Bill Chudziak - Children Of No-one/remainingmix.wav'
p796
sg13
F230.93303900000001
sg14
I44100
sbag5
(g6
g7
NtRp797
(dp798
g10
I2
sg11
S'data/DSD100/Mixtures/Test/009 - Bobby Nobody - Stitch Up/remainingmix.wav'
p799
sg13
F221.25
sg14
I44100
sbag5
(g6
g7
NtRp800
(dp801
g10
I2
sg11
S'data/DSD100/Mixtures/Test/010 - Carlos Gonzalez - A Place For Us/remainingmix.wav'
p802
sg13
F250.21875299999999
sg14
I44100
sbag5
(g6
g7
NtRp803
(dp804
g10
I2
sg11
S'data/DSD100/Mixtures/Test/011 - Cnoc An Tursa - Bannockburn/remainingmix.wav'
p805
sg13
F294.70088399999997
sg14
I44100
sbag5
(g6
g7
NtRp806
(dp807
g10
I2
sg11
S'data/DSD100/Mixtures/Test/012 - Dark Ride - Burning Bridges/remainingmix.wav'
p808
sg13
F232.848209
sg14
I44100
sbag5
(g6
g7
NtRp809
(dp810
g10
I2
sg11
S'data/DSD100/Mixtures/Test/040 - The Long Wait - Back Home To Blue/remainingmix.wav'
p811
sg13
F260.64800500000001
sg14
I44100
sbag5
(g6
g7
NtRp812
(dp813
g10
I2
sg11
S'data/DSD100/Mixtures/Test/041 - The Mountaineering Club - Mallory/remainingmix.wav'
p814
sg13
F244.45981900000001
sg14
I44100
sbag5
(g6
g7
NtRp815
(dp816
g10
I2
sg11
S"data/DSD100/Mixtures/Test/042 - The Wrong'Uns - Rothko/remainingmix.wav"
p817
sg13
F202.33927399999999
sg14
I44100
sbag5
(g6
g7
NtRp818
(dp819
g10
I2
sg11
S'data/DSD100/Mixtures/Test/043 - Timboz - Pony/remainingmix.wav'
p820
sg13
F253.04873000000001
sg14
I44100
sbag5
(g6
g7
NtRp821
(dp822
g10
I2
sg11
S'data/DSD100/Mixtures/Test/044 - Tom McKenzie - Directions/remainingmix.wav'
p823
sg13
F175.852676
sg14
I44100
sbag5
(g6
g7
NtRp824
(dp825
g10
I2
sg11
S'data/DSD100/Mixtures/Test/045 - Traffic Experiment - Sirens/remainingmix.wav'
p826
sg13
F421.45943299999999
sg14
I44100
sbag5
(g6
g7
NtRp827
(dp828
g10
I2
sg11
S'data/DSD100/Mixtures/Test/046 - Triviul - Dorothy/remainingmix.wav'
p829
sg13
F187.55786800000001
sg14
I44100
sbag5
(g6
g7
NtRp830
(dp831
g10
I2
sg11
S'data/DSD100/Mixtures/Test/047 - Voelund - Comfort Lives In Belief/remainingmix.wav'
p832
sg13
F210.09523799999999
sg14
I44100
sbag5
(g6
g7
NtRp833
(dp834
g10
I2
sg11
S'data/DSD100/Mixtures/Test/048 - We Fell From The Sky - Not You/remainingmix.wav'
p835
sg13
F207.897324
sg14
I44100
sbag5
(g6
g7
NtRp836
(dp837
g10
I2
sg11
S'data/DSD100/Mixtures/Test/049 - Young Griffo - Facade/remainingmix.wav'
p838
sg13
F168.05356
sg14
I44100
sbag5
(g6
g7
NtRp839
(dp840
g10
I2
sg11
S'data/DSD100/Mixtures/Test/050 - Zeno - Signs/remainingmix.wav'
p841
sg13
F234.38392300000001
sg14
I44100
sbag5
(g6
g7
NtRp842
(dp843
g10
I2
sg11
S"data/DSD100/Mixtures/Test/031 - Phre The Eon - Everybody's Falling Apart/remainingmix.wav"
p844
sg13
F224.41963699999999
sg14
I44100
sbag5
(g6
g7
NtRp845
(dp846
g10
I2
sg11
S'data/DSD100/Mixtures/Test/032 - Raft Monk - Tiring/remainingmix.wav'
p847
sg13
F212.24553299999999
sg14
I44100
sbaa(lp848
g5
(g6
g7
NtRp849
(dp850
g10
I2
sg11
S'data/DSD100/Sources/Test/001 - ANiMAL - Clinic A/drums.wav'
p851
sg13
F238.049116
sg14
I44100
sbag5
(g6
g7
NtRp852
(dp853
g10
I2
sg11
S'data/DSD100/Sources/Test/002 - ANiMAL - Rockshow/drums.wav'
p854
sg13
F165.696417
sg14
I44100
sbag5
(g6
g7
NtRp855
(dp856
g10
I2
sg11
S'data/DSD100/Sources/Test/003 - Actions - One Minute Smile/drums.wav'
p857
sg13
F163.57210900000001
sg14
I44100
sbag5
(g6
g7
NtRp858
(dp859
g10
I2
sg11
S'data/DSD100/Sources/Test/004 - Al James - Schoolboy Facination/drums.wav'
p860
sg13
F200.52678
sg14
I44100
sbag5
(g6
g7
NtRp861
(dp862
g10
I2
sg11
S'data/DSD100/Sources/Test/005 - Angela Thomas Wade - Milk Cow Blues/drums.wav'
p863
sg13
F211.08929699999999
sg14
I44100
sbag5
(g6
g7
NtRp864
(dp865
g10
I2
sg11
S'data/DSD100/Sources/Test/006 - Atlantis Bound - It Was My Fault For Waiting/drums.wav'
p866
sg13
F268.23659900000001
sg14
I44100
sbag5
(g6
g7
NtRp867
(dp868
g10
I2
sg11
S'data/DSD100/Sources/Test/007 - BKS - Too Much/drums.wav'
p869
sg13
F220.124989
sg14
I44100
sbag5
(g6
g7
NtRp870
(dp871
g10
I2
sg11
S'data/DSD100/Sources/Test/008 - Bill Chudziak - Children Of No-one/drums.wav'
p872
sg13
F230.93303900000001
sg14
I44100
sbag5
(g6
g7
NtRp873
(dp874
g10
I2
sg11
S'data/DSD100/Sources/Test/009 - Bobby Nobody - Stitch Up/drums.wav'
p875
sg13
F221.25
sg14
I44100
sbag5
(g6
g7
NtRp876
(dp877
g10
I2
sg11
S'data/DSD100/Sources/Test/010 - Carlos Gonzalez - A Place For Us/drums.wav'
p878
sg13
F250.21875299999999
sg14
I44100
sbag5
(g6
g7
NtRp879
(dp880
g10
I2
sg11
S'data/DSD100/Sources/Test/011 - Cnoc An Tursa - Bannockburn/drums.wav'
p881
sg13
F294.70088399999997
sg14
I44100
sbag5
(g6
g7
NtRp882
(dp883
g10
I2
sg11
S'data/DSD100/Sources/Test/012 - Dark Ride - Burning Bridges/drums.wav'
p884
sg13
F232.848209
sg14
I44100
sbag5
(g6
g7
NtRp885
(dp886
g10
I2
sg11
S'data/DSD100/Sources/Test/040 - The Long Wait - Back Home To Blue/drums.wav'
p887
sg13
F260.64800500000001
sg14
I44100
sbag5
(g6
g7
NtRp888
(dp889
g10
I2
sg11
S'data/DSD100/Sources/Test/041 - The Mountaineering Club - Mallory/drums.wav'
p890
sg13
F244.45981900000001
sg14
I44100
sbag5
(g6
g7
NtRp891
(dp892
g10
I2
sg11
S"data/DSD100/Sources/Test/042 - The Wrong'Uns - Rothko/drums.wav"
p893
sg13
F202.33927399999999
sg14
I44100
sbag5
(g6
g7
NtRp894
(dp895
g10
I2
sg11
S'data/DSD100/Sources/Test/043 - Timboz - Pony/drums.wav'
p896
sg13
F253.04873000000001
sg14
I44100
sbag5
(g6
g7
NtRp897
(dp898
g10
I2
sg11
S'data/DSD100/Sources/Test/044 - Tom McKenzie - Directions/drums.wav'
p899
sg13
F175.852676
sg14
I44100
sbag5
(g6
g7
NtRp900
(dp901
g10
I2
sg11
S'data/DSD100/Sources/Test/045 - Traffic Experiment - Sirens/drums.wav'
p902
sg13
F421.45943299999999
sg14
I44100
sbag5
(g6
g7
NtRp903
(dp904
g10
I2
sg11
S'data/DSD100/Sources/Test/046 - Triviul - Dorothy/drums.wav'
p905
sg13
F187.55786800000001
sg14
I44100
sbag5
(g6
g7
NtRp906
(dp907
g10
I2
sg11
S'data/DSD100/Sources/Test/047 - Voelund - Comfort Lives In Belief/drums.wav'
p908
sg13
F210.09523799999999
sg14
I44100
sbag5
(g6
g7
NtRp909
(dp910
g10
I2
sg11
S'data/DSD100/Sources/Test/048 - We Fell From The Sky - Not You/drums.wav'
p911
sg13
F207.897324
sg14
I44100
sbag5
(g6
g7
NtRp912
(dp913
g10
I2
sg11
S'data/DSD100/Sources/Test/049 - Young Griffo - Facade/drums.wav'
p914
sg13
F168.05356
sg14
I44100
sbag5
(g6
g7
NtRp915
(dp916
g10
I2
sg11
S'data/DSD100/Sources/Test/050 - Zeno - Signs/drums.wav'
p917
sg13
F234.38392300000001
sg14
I44100
sbag5
(g6
g7
NtRp918
(dp919
g10
I2
sg11
S"data/DSD100/Sources/Test/031 - Phre The Eon - Everybody's Falling Apart/drums.wav"
p920
sg13
F224.41963699999999
sg14
I44100
sbag5
(g6
g7
NtRp921
(dp922
g10
I2
sg11
S'data/DSD100/Sources/Test/032 - Raft Monk - Tiring/drums.wav'
p923
sg13
F212.24553299999999
sg14
I44100
sbaasS'train_unsup'
p924
(lp925
(lp926
g5
(g6
g7
NtRp927
(dp928
g10
I2
sg11
S'/home/ubuntu/AAS/data/unsup/mix/1.mp3'
p929
sg13
F362
sg14
I44100
sbag5
(g6
g7
NtRp930
(dp931
g10
I2
sg11
S'/home/ubuntu/AAS/data/unsup/mix/2.mp3'
p932
sg13
F570
sg14
I44100
sbag5
(g6
g7
NtRp933
(dp934
g10
I2
sg11
S'/home/ubuntu/AAS/data/unsup/mix/3.mp3'
p935
sg13
F577
sg14
I44100
sbag5
(g6
g7
NtRp936
(dp937
g10
I2
sg11
S'/home/ubuntu/AAS/data/unsup/mix/4.mp3'
p938
sg13
F545
sg14
I44100
sbag5
(g6
g7
NtRp939
(dp940
g10
I2
sg11
S'/home/ubuntu/AAS/data/unsup/mix/5.mp3'
p941
sg13
F515
sg14
I44100
sbag5
(g6
g7
NtRp942
(dp943
g10
I2
sg11
S'/home/ubuntu/AAS/data/unsup/mix/6.mp3'
p944
sg13
F437
sg14
I44100
sbag5
(g6
g7
NtRp945
(dp946
g10
I2
sg11
S'/home/ubuntu/AAS/data/unsup/mix/7.mp3'
p947
sg13
F436
sg14
I44100
sbag5
(g6
g7
NtRp948
(dp949
g10
I2
sg11
S'/home/ubuntu/AAS/data/unsup/mix/8.mp3'
p950
sg13
F498
sg14
I44100
sbag5
(g6
g7
NtRp951
(dp952
g10
I2
sg11
S'/home/ubuntu/AAS/data/unsup/mix/9.mp3'
p953
sg13
F496
sg14
I44100
sbag5
(g6
g7
NtRp954
(dp955
g10
I2
sg11
S'/home/ubuntu/AAS/data/unsup/mix/10.mp3'
p956
sg13
F478
sg14
I44100
sbag5
(g6
g7
NtRp957
(dp958
g10
I2
sg11
S'/home/ubuntu/AAS/data/unsup/mix/11.mp3'
p959
sg13
F439
sg14
I44100
sbag5
(g6
g7
NtRp960
(dp961
g10
I2
sg11
S'/home/ubuntu/AAS/data/unsup/mix/12.mp3'
p962
sg13
F417
sg14
I44100
sbag5
(g6
g7
NtRp963
(dp964
g10
I2
sg11
S'/home/ubuntu/AAS/data/unsup/mix/13.mp3'
p965
sg13
F400
sg14
I44100
sbag5
(g6
g7
NtRp966
(dp967
g10
I2
sg11
S'/home/ubuntu/AAS/data/unsup/mix/14.mp3'
p968
sg13
F393
sg14
I44100
sbag5
(g6
g7
NtRp969
(dp970
g10
I2
sg11
S'/home/ubuntu/AAS/data/unsup/mix/15.mp3'
p971
sg13
F409
sg14
I44100
sbag5
(g6
g7
NtRp972
(dp973
g10
I2
sg11
S'/home/ubuntu/AAS/data/unsup/mix/16.mp3'
p974
sg13
F358
sg14
I44100
sbag5
(g6
g7
NtRp975
(dp976
g10
I2
sg11
S'/home/ubuntu/AAS/data/unsup/mix/17.mp3'
p977
sg13
F326
sg14
I44100
sbag5
(g6
g7
NtRp978
(dp979
g10
I2
sg11
S'/home/ubuntu/AAS/data/unsup/mix/18.mp3'
p980
sg13
F339
sg14
I44100
sbag5
(g6
g7
NtRp981
(dp982
g10
I2
sg11
S'/home/ubuntu/AAS/data/unsup/mix/19.mp3'
p983
sg13
F344
sg14
I44100
sbag5
(g6
g7
NtRp984
(dp985
g10
I2
sg11
S'/home/ubuntu/AAS/data/unsup/mix/20.mp3'
p986
sg13
F342
sg14
I44100
sbag5
(g6
g7
NtRp987
(dp988
g10
I2
sg11
S'/home/ubuntu/AAS/data/unsup/mix/21.mp3'
p989
sg13
F343
sg14
I44100
sbag5
(g6
g7
NtRp990
(dp991
g10
I2
sg11
S'/home/ubuntu/AAS/data/unsup/mix/22.mp3'
p992
sg13
F320
sg14
I44100
sbag5
(g6
g7
NtRp993
(dp994
g10
I2
sg11
S'/home/ubuntu/AAS/data/unsup/mix/23.mp3'
p995
sg13
F282
sg14
I44100
sbag5
(g6
g7
NtRp996
(dp997
g10
I2
sg11
S'/home/ubuntu/AAS/data/unsup/mix/24.mp3'
p998
sg13
F236
sg14
I44100
sbag5
(g6
g7
NtRp999
(dp1000
g10
I2
sg11
S'/home/ubuntu/AAS/data/unsup/mix/25.mp3'
p1001
sg13
F213
sg14
I44100
sbag5
(g6
g7
NtRp1002
(dp1003
g10
I2
sg11
S'/home/ubuntu/AAS/data/unsup/mix/26.mp3'
p1004
sg13
F262
sg14
I44100
sbag5
(g6
g7
NtRp1005
(dp1006
g10
I2
sg11
S'/home/ubuntu/AAS/data/unsup/mix/27.mp3'
p1007
sg13
F271
sg14
I44100
sbag5
(g6
g7
NtRp1008
(dp1009
g10
I2
sg11
S'/home/ubuntu/AAS/data/unsup/mix/28.mp3'
p1010
sg13
F250
sg14
I44100
sbag5
(g6
g7
NtRp1011
(dp1012
g10
I2
sg11
S'/home/ubuntu/AAS/data/unsup/mix/29.mp3'
p1013
sg13
F231
sg14
I44100
sbag5
(g6
g7
NtRp1014
(dp1015
g10
I2
sg11
S'/home/ubuntu/AAS/data/unsup/mix/30.mp3'
p1016
sg13
F258
sg14
I44100
sbag5
(g6
g7
NtRp1017
(dp1018
g10
I2
sg11
S'/home/ubuntu/AAS/data/unsup/mix/31.mp3'
p1019
sg13
F258
sg14
I44100
sbag5
(g6
g7
NtRp1020
(dp1021
g10
I2
sg11
S'/home/ubuntu/AAS/data/unsup/mix/32.mp3'
p1022
sg13
F251
sg14
I44100
sbag5
(g6
g7
NtRp1023
(dp1024
g10
I2
sg11
S'/home/ubuntu/AAS/data/unsup/mix/33.mp3'
p1025
sg13
F230
sg14
I44100
sbag5
(g6
g7
NtRp1026
(dp1027
g10
I2
sg11
S'/home/ubuntu/AAS/data/unsup/mix/34.mp3'
p1028
sg13
F241
sg14
I44100
sbag5
(g6
g7
NtRp1029
(dp1030
g10
I2
sg11
S'/home/ubuntu/AAS/data/unsup/mix/35.mp3'
p1031
sg13
F242
sg14
I44100
sbag5
(g6
g7
NtRp1032
(dp1033
g10
I2
sg11
S'/home/ubuntu/AAS/data/unsup/mix/36.mp3'
p1034
sg13
F180
sg14
I44100
sbag5
(g6
g7
NtRp1035
(dp1036
g10
I2
sg11
S'/home/ubuntu/AAS/data/unsup/mix/37.mp3'
p1037
sg13
F212
sg14
I44100
sbag5
(g6
g7
NtRp1038
(dp1039
g10
I2
sg11
S'/home/ubuntu/AAS/data/unsup/mix/38.mp3'
p1040
sg13
F185
sg14
I44100
sbag5
(g6
g7
NtRp1041
(dp1042
g10
I2
sg11
S'/home/ubuntu/AAS/data/unsup/mix/39.mp3'
p1043
sg13
F223
sg14
I44100
sbag5
(g6
g7
NtRp1044
(dp1045
g10
I2
sg11
S'/home/ubuntu/AAS/data/unsup/drums/1.wav'
p1046
sg13
F20.210544217687076
sg14
I44100
sbag5
(g6
g7
NtRp1047
(dp1048
g10
I2
sg11
S'/home/ubuntu/AAS/data/unsup/drums/2.wav'
p1049
sg13
F22.069115646258503
sg14
I44100
sbag5
(g6
g7
NtRp1050
(dp1051
g10
I2
sg11
S'/home/ubuntu/AAS/data/unsup/drums/3.wav'
p1052
sg13
F21.333333333333332
sg14
I44100
sbag5
(g6
g7
NtRp1053
(dp1054
g10
I2
sg11
S'/home/ubuntu/AAS/data/unsup/drums/4.wav'
p1055
sg13
F20.869569160997731
sg14
I44100
sbag5
(g6
g7
NtRp1056
(dp1057
g10
I2
sg11
S'/home/ubuntu/AAS/data/unsup/drums/5.wav'
p1058
sg13
F20.210544217687076
sg14
I44100
sbag5
(g6
g7
NtRp1059
(dp1060
g10
I2
sg11
S'/home/ubuntu/AAS/data/unsup/drums/6.wav'
p1061
sg13
F21.758185941043084
sg14
I44100
sbag5
(g6
g7
NtRp1062
(dp1063
g10
I2
sg11
S'/home/ubuntu/AAS/data/unsup/drums/7.wav'
p1064
sg13
F10.549455782312926
sg14
I44100
sbag5
(g6
g7
NtRp1065
(dp1066
g10
I2
sg11
S'/home/ubuntu/AAS/data/unsup/drums/8.wav'
p1067
sg13
F10.434829931972789
sg14
I44100
sbag5
(g6
g7
NtRp1068
(dp1069
g10
I2
sg11
S'/home/ubuntu/AAS/data/unsup/drums/9.wav'
p1070
sg13
F21.818185941043083
sg14
I44100
sbag5
(g6
g7
NtRp1071
(dp1072
g10
I2
sg11
S'/home/ubuntu/AAS/data/unsup/drums/10.wav'
p1073
sg13
F21.098911564625851
sg14
I44100
sbag5
(g6
g7
NtRp1074
(dp1075
g10
I2
sg11
S'/home/ubuntu/AAS/data/unsup/drums/11.wav'
p1076
sg13
F20.869569160997731
sg14
I44100
sbag5
(g6
g7
NtRp1077
(dp1078
g10
I2
sg11
S'/home/ubuntu/AAS/data/unsup/drums/12.wav'
p1079
sg13
F20.210544217687076
sg14
I44100
sbag5
(g6
g7
NtRp1080
(dp1081
g10
I2
sg11
S'/home/ubuntu/AAS/data/unsup/drums/13.wav'
p1082
sg13
F19.199999999999999
sg14
I44100
sbag5
(g6
g7
NtRp1083
(dp1084
g10
I2
sg11
S'/home/ubuntu/AAS/data/unsup/drums/14.wav'
p1085
sg13
F16.695668934240363
sg14
I44100
sbag5
(g6
g7
NtRp1086
(dp1087
g10
I2
sg11
S'/home/ubuntu/AAS/data/unsup/drums/15.wav'
p1088
sg13
F8.3478458049886619
sg14
I44100
sbag5
(g6
g7
NtRp1089
(dp1090
g10
I2
sg11
S'/home/ubuntu/AAS/data/unsup/drums/16.wav'
p1091
sg13
F8.3478458049886619
sg14
I44100
sbag5
(g6
g7
NtRp1092
(dp1093
g10
I2
sg11
S'/home/ubuntu/AAS/data/unsup/drums/17.wav'
p1094
sg13
F4
sg14
I44100
sbag5
(g6
g7
NtRp1095
(dp1096
g10
I2
sg11
S'/home/ubuntu/AAS/data/unsup/drums/18.wav'
p1097
sg13
F8
sg14
I44100
sbag5
(g6
g7
NtRp1098
(dp1099
g10
I2
sg11
S'/home/ubuntu/AAS/data/unsup/drums/19.wav'
p1100
sg13
F8
sg14
I44100
sbag5
(g6
g7
NtRp1101
(dp1102
g10
I2
sg11
S'/home/ubuntu/AAS/data/unsup/drums/20.wav'
p1103
sg13
F16
sg14
I44100
sbag5
(g6
g7
NtRp1104
(dp1105
g10
I2
sg11
S'/home/ubuntu/AAS/data/unsup/drums/21.wav'
p1106
sg13
F16
sg14
I44100
sbag5
(g6
g7
NtRp1107
(dp1108
g10
I2
sg11
S'/home/ubuntu/AAS/data/unsup/drums/22.wav'
p1109
sg13
F4
sg14
I44100
sbag5
(g6
g7
NtRp1110
(dp1111
g10
I2
sg11
S'/home/ubuntu/AAS/data/unsup/drums/23.wav'
p1112
sg13
F8
sg14
I44100
sbag5
(g6
g7
NtRp1113
(dp1114
g10
I2
sg11
S'/home/ubuntu/AAS/data/unsup/drums/24.wav'
p1115
sg13
F8
sg14
I44100
sbag5
(g6
g7
NtRp1116
(dp1117
g10
I2
sg11
S'/home/ubuntu/AAS/data/unsup/drums/25.wav'
p1118
sg13
F8
sg14
I44100
sbag5
(g6
g7
NtRp1119
(dp1120
g10
I2
sg11
S'/home/ubuntu/AAS/data/unsup/drums/26.wav'
p1121
sg13
F16
sg14
I44100
sbag5
(g6
g7
NtRp1122
(dp1123
g10
I2
sg11
S'/home/ubuntu/AAS/data/unsup/drums/27.wav'
p1124
sg13
F16
sg14
I44100
sbag5
(g6
g7
NtRp1125
(dp1126
g10
I2
sg11
S'/home/ubuntu/AAS/data/unsup/drums/28.wav'
p1127
sg13
F8
sg14
I44100
sbag5
(g6
g7
NtRp1128
(dp1129
g10
I2
sg11
S'/home/ubuntu/AAS/data/unsup/drums/29.wav'
p1130
sg13
F16
sg14
I44100
sbag5
(g6
g7
NtRp1131
(dp1132
g10
I2
sg11
S'/home/ubuntu/AAS/data/unsup/drums/30.wav'
p1133
sg13
F8
sg14
I44100
sbag5
(g6
g7
NtRp1134
(dp1135
g10
I2
sg11
S'/home/ubuntu/AAS/data/unsup/drums/31.wav'
p1136
sg13
F8
sg14
I44100
sbag5
(g6
g7
NtRp1137
(dp1138
g10
I2
sg11
S'/home/ubuntu/AAS/data/unsup/drums/32.wav'
p1139
sg13
F15.737709750566893
sg14
I44100
sbag5
(g6
g7
NtRp1140
(dp1141
g10
I2
sg11
S'/home/ubuntu/AAS/data/unsup/drums/33.wav'
p1142
sg13
F15.737709750566893
sg14
I44100
sbag5
(g6
g7
NtRp1143
(dp1144
g10
I2
sg11
S'/home/ubuntu/AAS/data/unsup/drums/34.wav'
p1145
sg13
F3.9344444444444444
sg14
I44100
sbag5
(g6
g7
NtRp1146
(dp1147
g10
I2
sg11
S'/home/ubuntu/AAS/data/unsup/drums/35.wav'
p1148
sg13
F15.737709750566893
sg14
I44100
sbag5
(g6
g7
NtRp1149
(dp1150
g10
I2
sg11
S'/home/ubuntu/AAS/data/unsup/drums/36.wav'
p1151
sg13
F7.8688662131519278
sg14
I44100
sbag5
(g6
g7
NtRp1152
(dp1153
g10
I2
sg11
S'/home/ubuntu/AAS/data/unsup/drums/37.wav'
p1154
sg13
F9.1048072562358282
sg14
I44100
sbag5
(g6
g7
NtRp1155
(dp1156
g10
I2
sg11
S'/home/ubuntu/AAS/data/unsup/drums/38.wav'
p1157
sg13
F9.8106802721088435
sg14
I44100
sbag5
(g6
g7
NtRp1158
(dp1159
g10
I2
sg11
S'/home/ubuntu/AAS/data/unsup/drums/39.wav'
p1160
sg13
F11.144013605442177
sg14
I44100
sbag5
(g6
g7
NtRp1161
(dp1162
g10
I2
sg11
S'/home/ubuntu/AAS/data/unsup/drums/40.wav'
p1163
sg13
F9.9675510204081625
sg14
I44100
sbag5
(g6
g7
NtRp1164
(dp1165
g10
I2
sg11
S'/home/ubuntu/AAS/data/unsup/drums/41.wav'
p1166
sg13
F9.1682539682539677
sg14
I44100
sbag5
(g6
g7
NtRp1167
(dp1168
g10
I2
sg11
S'/home/ubuntu/AAS/data/unsup/drums/42.wav'
p1169
sg13
F9.9587528344671199
sg14
I44100
sbag5
(g6
g7
NtRp1170
(dp1171
g10
I2
sg11
S'/home/ubuntu/AAS/data/unsup/drums/43.wav'
p1172
sg13
F8.9721768707482994
sg14
I44100
sbag5
(g6
g7
NtRp1173
(dp1174
g10
I2
sg11
S'/home/ubuntu/AAS/data/unsup/drums/44.wav'
p1175
sg13
F12.272471655328799
sg14
I44100
sbag5
(g6
g7
NtRp1176
(dp1177
g10
I2
sg11
S'/home/ubuntu/AAS/data/unsup/drums/45.wav'
p1178
sg13
F9.3557823129251698
sg14
I44100
sbag5
(g6
g7
NtRp1179
(dp1180
g10
I2
sg11
S'/home/ubuntu/AAS/data/unsup/drums/46.wav'
p1181
sg13
F10.140090702947846
sg14
I44100
sbag5
(g6
g7
NtRp1182
(dp1183
g10
I2
sg11
S'/home/ubuntu/AAS/data/unsup/drums/47.wav'
p1184
sg13
F9.889115646258503
sg14
I44100
sbag5
(g6
g7
NtRp1185
(dp1186
g10
I2
sg11
S'/home/ubuntu/AAS/data/unsup/drums/48.wav'
p1187
sg13
F9.7714739229024943
sg14
I44100
sbag5
(g6
g7
NtRp1188
(dp1189
g10
I2
sg11
S'/home/ubuntu/AAS/data/unsup/drums/49.wav'
p1190
sg13
F10.507777777777777
sg14
I44100
sbag5
(g6
g7
NtRp1191
(dp1192
g10
I2
sg11
S'/home/ubuntu/AAS/data/unsup/drums/50.wav'
p1193
sg13
F10.667375
sg14
I48000
sbag5
(g6
g7
NtRp1194
(dp1195
g10
I2
sg11
S'/home/ubuntu/AAS/data/unsup/drums/51.wav'
p1196
sg13
F10.667395833333334
sg14
I48000
sbag5
(g6
g7
NtRp1197
(dp1198
g10
I2
sg11
S'/home/ubuntu/AAS/data/unsup/drums/52.wav'
p1199
sg13
F10.667375
sg14
I48000
sbag5
(g6
g7
NtRp1200
(dp1201
g10
I2
sg11
S'/home/ubuntu/AAS/data/unsup/drums/53.wav'
p1202
sg13
F21.334041666666668
sg14
I48000
sbag5
(g6
g7
NtRp1203
(dp1204
g10
I2
sg11
S'/home/ubuntu/AAS/data/unsup/drums/54.wav'
p1205
sg13
F5.3340416666666668
sg14
I48000
sbag5
(g6
g7
NtRp1206
(dp1207
g10
I2
sg11
S'/home/ubuntu/AAS/data/unsup/drums/55.wav'
p1208
sg13
F5.3340416666666668
sg14
I48000
sbag5
(g6
g7
NtRp1209
(dp1210
g10
I2
sg11
S'/home/ubuntu/AAS/data/unsup/drums/56.wav'
p1211
sg13
F5.3340416666666668
sg14
I48000
sbag5
(g6
g7
NtRp1212
(dp1213
g10
I2
sg11
S'/home/ubuntu/AAS/data/unsup/drums/57.wav'
p1214
sg13
F10.667395833333334
sg14
I48000
sbag5
(g6
g7
NtRp1215
(dp1216
g10
I2
sg11
S'/home/ubuntu/AAS/data/unsup/drums/58.wav'
p1217
sg13
F7.3853333333333335
sg14
I48000
sbag5
(g6
g7
NtRp1218
(dp1219
g10
I2
sg11
S'/home/ubuntu/AAS/data/unsup/drums/59.wav'
p1220
sg13
F7.3853333333333335
sg14
I48000
sbag5
(g6
g7
NtRp1221
(dp1222
g10
I2
sg11
S'/home/ubuntu/AAS/data/unsup/drums/60.wav'
p1223
sg13
F7.3853333333333335
sg14
I48000
sbag5
(g6
g7
NtRp1224
(dp1225
g10
I2
sg11
S'/home/ubuntu/AAS/data/unsup/drums/61.wav'
p1226
sg13
F7.3853333333333335
sg14
I48000
sbag5
(g6
g7
NtRp1227
(dp1228
g10
I2
sg11
S'/home/ubuntu/AAS/data/unsup/drums/62.wav'
p1229
sg13
F3.6930208333333332
sg14
I48000
sbag5
(g6
g7
NtRp1230
(dp1231
g10
I2
sg11
S'/home/ubuntu/AAS/data/unsup/drums/63.wav'
p1232
sg13
F3.6930208333333332
sg14
I48000
sbag5
(g6
g7
NtRp1233
(dp1234
g10
I2
sg11
S'/home/ubuntu/AAS/data/unsup/drums/64.wav'
p1235
sg13
F3.6930208333333332
sg14
I48000
sbag5
(g6
g7
NtRp1236
(dp1237
g10
I2
sg11
S'/home/ubuntu/AAS/data/unsup/drums/65.wav'
p1238
sg13
F7.3853333333333335
sg14
I48000
sbag5
(g6
g7
NtRp1239
(dp1240
g10
I2
sg11
S'/home/ubuntu/AAS/data/unsup/drums/66.wav'
p1241
sg13
F7.3853333333333335
sg14
I48000
sbag5
(g6
g7
NtRp1242
(dp1243
g10
I2
sg11
S'/home/ubuntu/AAS/data/unsup/drums/67.wav'
p1244
sg13
F3.6930208333333332
sg14
I48000
sbag5
(g6
g7
NtRp1245
(dp1246
g10
I2
sg11
S'/home/ubuntu/AAS/data/unsup/drums/68.wav'
p1247
sg13
F7.3853333333333335
sg14
I48000
sbag5
(g6
g7
NtRp1248
(dp1249
g10
I2
sg11
S'/home/ubuntu/AAS/data/unsup/drums/69.wav'
p1250
sg13
F7.3853333333333335
sg14
I48000
sbag5
(g6
g7
NtRp1251
(dp1252
g10
I2
sg11
S'/home/ubuntu/AAS/data/unsup/drums/70.wav'
p1253
sg13
F7.3853333333333335
sg14
I48000
sbag5
(g6
g7
NtRp1254
(dp1255
g10
I2
sg11
S'/home/ubuntu/AAS/data/unsup/drums/71.wav'
p1256
sg13
F14.769937499999999
sg14
I48000
sbag5
(g6
g7
NtRp1257
(dp1258
g10
I2
sg11
S'/home/ubuntu/AAS/data/unsup/drums/72.wav'
p1259
sg13
F10.105979166666666
sg14
I48000
sbag5
(g6
g7
NtRp1260
(dp1261
g10
I2
sg11
S'/home/ubuntu/AAS/data/unsup/drums/73.wav'
p1262
sg13
F10.105979166666666
sg14
I48000
sbag5
(g6
g7
NtRp1263
(dp1264
g10
I2
sg11
S'/home/ubuntu/AAS/data/unsup/drums/74.wav'
p1265
sg13
F10.105979166666666
sg14
I48000
sbag5
(g6
g7
NtRp1266
(dp1267
g10
I2
sg11
S'/home/ubuntu/AAS/data/unsup/drums/75.wav'
p1268
sg13
F5.0533333333333337
sg14
I48000
sbag5
(g6
g7
NtRp1269
(dp1270
g10
I2
sg11
S'/home/ubuntu/AAS/data/unsup/drums/76.wav'
p1271
sg13
F7.5796666666666663
sg14
I48000
sbag5
(g6
g7
NtRp1272
(dp1273
g10
I2
sg11
S'/home/ubuntu/AAS/data/unsup/drums/77.wav'
p1274
sg13
F5.0533541666666668
sg14
I48000
sbag5
(g6
g7
NtRp1275
(dp1276
g10
I2
sg11
S'/home/ubuntu/AAS/data/unsup/drums/78.wav'
p1277
sg13
F10.105979166666666
sg14
I48000
sbag5
(g6
g7
NtRp1278
(dp1279
g10
I2
sg11
S'/home/ubuntu/AAS/data/unsup/drums/79.wav'
p1280
sg13
F10.105979166666666
sg14
I48000
sbag5
(g6
g7
NtRp1281
(dp1282
g10
I2
sg11
S'/home/ubuntu/AAS/data/unsup/drums/80.wav'
p1283
sg13
F10.105979166666666
sg14
I48000
sbag5
(g6
g7
NtRp1284
(dp1285
g10
I2
sg11
S'/home/ubuntu/AAS/data/unsup/drums/81.wav'
p1286
sg13
F10.105979166666666
sg14
I48000
sbag5
(g6
g7
NtRp1287
(dp1288
g10
I2
sg11
S'/home/ubuntu/AAS/data/unsup/drums/82.wav'
p1289
sg13
F10.105979166666666
sg14
I48000
sbag5
(g6
g7
NtRp1290
(dp1291
g10
I2
sg11
S'/home/ubuntu/AAS/data/unsup/drums/83.wav'
p1292
sg13
F10.105979166666666
sg14
I48000
sbag5
(g6
g7
NtRp1293
(dp1294
g10
I2
sg11
S'/home/ubuntu/AAS/data/unsup/drums/84.wav'
p1295
sg13
F10.105979166666666
sg14
I48000
sbag5
(g6
g7
NtRp1296
(dp1297
g10
I2
sg11
S'/home/ubuntu/AAS/data/unsup/drums/85.wav'
p1298
sg13
F12.152604166666666
sg14
I48000
sbag5
(g6
g7
NtRp1299
(dp1300
g10
I2
sg11
S'/home/ubuntu/AAS/data/unsup/drums/86.wav'
p1301
sg13
F12.152604166666666
sg14
I48000
sbag5
(g6
g7
NtRp1302
(dp1303
g10
I2
sg11
S'/home/ubuntu/AAS/data/unsup/drums/87.wav'
p1304
sg13
F12.152604166666666
sg14
I48000
sbag5
(g6
g7
NtRp1305
(dp1306
g10
I2
sg11
S'/home/ubuntu/AAS/data/unsup/drums/88.wav'
p1307
sg13
F6.0766666666666671
sg14
I48000
sbag5
(g6
g7
NtRp1308
(dp1309
g10
I2
sg11
S'/home/ubuntu/AAS/data/unsup/drums/89.wav'
p1310
sg13
F12.152604166666666
sg14
I48000
sbag5
(g6
g7
NtRp1311
(dp1312
g10
I2
sg11
S'/home/ubuntu/AAS/data/unsup/drums/90.wav'
p1313
sg13
F12.152604166666666
sg14
I48000
sbag5
(g6
g7
NtRp1314
(dp1315
g10
I2
sg11
S'/home/ubuntu/AAS/data/unsup/drums/91.wav'
p1316
sg13
F12.152604166666666
sg14
I48000
sbag5
(g6
g7
NtRp1317
(dp1318
g10
I2
sg11
S'/home/ubuntu/AAS/data/unsup/drums/92.wav'
p1319
sg13
F12.152625
sg14
I48000
sbag5
(g6
g7
NtRp1320
(dp1321
g10
I2
sg11
S'/home/ubuntu/AAS/data/unsup/drums/93.wav'
p1322
sg13
F3.6930208333333332
sg14
I48000
sbag5
(g6
g7
NtRp1323
(dp1324
g10
I2
sg11
S'/home/ubuntu/AAS/data/unsup/drums/94.wav'
p1325
sg13
F3.6930208333333332
sg14
I48000
sbag5
(g6
g7
NtRp1326
(dp1327
g10
I2
sg11
S'/home/ubuntu/AAS/data/unsup/drums/95.wav'
p1328
sg13
F3.6930208333333332
sg14
I48000
sbag5
(g6
g7
NtRp1329
(dp1330
g10
I2
sg11
S'/home/ubuntu/AAS/data/unsup/drums/96.wav'
p1331
sg13
F3.6930208333333332
sg14
I48000
sbag5
(g6
g7
NtRp1332
(dp1333
g10
I2
sg11
S'/home/ubuntu/AAS/data/unsup/drums/97.wav'
p1334
sg13
F7.3853333333333335
sg14
I48000
sbag5
(g6
g7
NtRp1335
(dp1336
g10
I2
sg11
S'/home/ubuntu/AAS/data/unsup/drums/98.wav'
p1337
sg13
F7.3853333333333335
sg14
I48000
sbag5
(g6
g7
NtRp1338
(dp1339
g10
I2
sg11
S'/home/ubuntu/AAS/data/unsup/drums/99.wav'
p1340
sg13
F7.3853333333333335
sg14
I48000
sbag5
(g6
g7
NtRp1341
(dp1342
g10
I2
sg11
S'/home/ubuntu/AAS/data/unsup/drums/100.wav'
p1343
sg13
F7.3853333333333335
sg14
I48000
sbag5
(g6
g7
NtRp1344
(dp1345
g10
I2
sg11
S'/home/ubuntu/AAS/data/unsup/drums/101.wav'
p1346
sg13
F7.3853333333333335
sg14
I48000
sbag5
(g6
g7
NtRp1347
(dp1348
g10
I2
sg11
S'/home/ubuntu/AAS/data/unsup/drums/102.wav'
p1349
sg13
F7.3853333333333335
sg14
I48000
sbag5
(g6
g7
NtRp1350
(dp1351
g10
I2
sg11
S'/home/ubuntu/AAS/data/unsup/drums/103.wav'
p1352
sg13
F7.3853333333333335
sg14
I48000
sbag5
(g6
g7
NtRp1353
(dp1354
g10
I2
sg11
S'/home/ubuntu/AAS/data/unsup/drums/104.wav'
p1355
sg13
F7.3853333333333335
sg14
I48000
sbag5
(g6
g7
NtRp1356
(dp1357
g10
I2
sg11
S'/home/ubuntu/AAS/data/unsup/drums/105.wav'
p1358
sg13
F7.3853333333333335
sg14
I48000
sbag5
(g6
g7
NtRp1359
(dp1360
g10
I2
sg11
S'/home/ubuntu/AAS/data/unsup/drums/106.wav'
p1361
sg13
F7.3853333333333335
sg14
I48000
sbag5
(g6
g7
NtRp1362
(dp1363
g10
I2
sg11
S'/home/ubuntu/AAS/data/unsup/drums/107.wav'
p1364
sg13
F7.3853333333333335
sg14
I48000
sbag5
(g6
g7
NtRp1365
(dp1366
g10
I2
sg11
S'/home/ubuntu/AAS/data/unsup/drums/108.wav'
p1367
sg13
F7.3853333333333335
sg14
I48000
sbag5
(g6
g7
NtRp1368
(dp1369
g10
I2
sg11
S'/home/ubuntu/AAS/data/unsup/drums/109.wav'
p1370
sg13
F7.3853333333333335
sg14
I48000
sbag5
(g6
g7
NtRp1371
(dp1372
g10
I2
sg11
S'/home/ubuntu/AAS/data/unsup/drums/110.wav'
p1373
sg13
F7.3853333333333335
sg14
I48000
sbag5
(g6
g7
NtRp1374
(dp1375
g10
I2
sg11
S'/home/ubuntu/AAS/data/unsup/drums/111.wav'
p1376
sg13
F8.5721458333333338
sg14
I48000
sbag5
(g6
g7
NtRp1377
(dp1378
g10
I2
sg11
S'/home/ubuntu/AAS/data/unsup/drums/112.wav'
p1379
sg13
F8.5721458333333338
sg14
I48000
sbag5
(g6
g7
NtRp1380
(dp1381
g10
I2
sg11
S'/home/ubuntu/AAS/data/unsup/drums/113.wav'
p1382
sg13
F6.4292916666666668
sg14
I48000
sbag5
(g6
g7
NtRp1383
(dp1384
g10
I2
sg11
S'/home/ubuntu/AAS/data/unsup/drums/114.wav'
p1385
sg13
F8.5721458333333338
sg14
I48000
sbag5
(g6
g7
NtRp1386
(dp1387
g10
I2
sg11
S'/home/ubuntu/AAS/data/unsup/drums/115.wav'
p1388
sg13
F4.2864374999999999
sg14
I48000
sbag5
(g6
g7
NtRp1389
(dp1390
g10
I2
sg11
S'/home/ubuntu/AAS/data/unsup/drums/116.wav'
p1391
sg13
F8.5721458333333338
sg14
I48000
sbag5
(g6
g7
NtRp1392
(dp1393
g10
I2
sg11
S'/home/ubuntu/AAS/data/unsup/drums/117.wav'
p1394
sg13
F8.5721458333333338
sg14
I48000
sbag5
(g6
g7
NtRp1395
(dp1396
g10
I2
sg11
S'/home/ubuntu/AAS/data/unsup/drums/118.wav'
p1397
sg13
F8.5721458333333338
sg14
I48000
sbag5
(g6
g7
NtRp1398
(dp1399
g10
I2
sg11
S'/home/ubuntu/AAS/data/unsup/drums/119.wav'
p1400
sg13
F8.5721458333333338
sg14
I48000
sbag5
(g6
g7
NtRp1401
(dp1402
g10
I2
sg11
S'/home/ubuntu/AAS/data/unsup/drums/120.wav'
p1403
sg13
F8.5721458333333338
sg14
I48000
sbag5
(g6
g7
NtRp1404
(dp1405
g10
I2
sg11
S'/home/ubuntu/AAS/data/unsup/drums/121.wav'
p1406
sg13
F8.5721458333333338
sg14
I48000
sbag5
(g6
g7
NtRp1407
(dp1408
g10
I2
sg11
S'/home/ubuntu/AAS/data/unsup/drums/122.wav'
p1409
sg13
F8.5721458333333338
sg14
I48000
sbag5
(g6
g7
NtRp1410
(dp1411
g10
I2
sg11
S'/home/ubuntu/AAS/data/unsup/drums/123.wav'
p1412
sg13
F8.5721458333333338
sg14
I48000
sbag5
(g6
g7
NtRp1413
(dp1414
g10
I2
sg11
S'/home/ubuntu/AAS/data/unsup/drums/124.wav'
p1415
sg13
F8.5721458333333338
sg14
I48000
sbag5
(g6
g7
NtRp1416
(dp1417
g10
I2
sg11
S'/home/ubuntu/AAS/data/unsup/drums/125.wav'
p1418
sg13
F8.5721458333333338
sg14
I48000
sbag5
(g6
g7
NtRp1419
(dp1420
g10
I2
sg11
S'/home/ubuntu/AAS/data/unsup/drums/126.wav'
p1421
sg13
F8.5721458333333338
sg14
I48000
sbag5
(g6
g7
NtRp1422
(dp1423
g10
I2
sg11
S'/home/ubuntu/AAS/data/unsup/drums/127.wav'
p1424
sg13
F10.787229166666666
sg14
I48000
sbag5
(g6
g7
NtRp1425
(dp1426
g10
I2
sg11
S'/home/ubuntu/AAS/data/unsup/drums/128.wav'
p1427
sg13
F10.787229166666666
sg14
I48000
sbag5
(g6
g7
NtRp1428
(dp1429
g10
I2
sg11
S'/home/ubuntu/AAS/data/unsup/drums/129.wav'
p1430
sg13
F5.393979166666667
sg14
I48000
sbag5
(g6
g7
NtRp1431
(dp1432
g10
I2
sg11
S'/home/ubuntu/AAS/data/unsup/drums/130.wav'
p1433
sg13
F5.393979166666667
sg14
I48000
sbag5
(g6
g7
NtRp1434
(dp1435
g10
I2
sg11
S'/home/ubuntu/AAS/data/unsup/drums/131.wav'
p1436
sg13
F5.393958333333333
sg14
I48000
sbag5
(g6
g7
NtRp1437
(dp1438
g10
I2
sg11
S'/home/ubuntu/AAS/data/unsup/drums/132.wav'
p1439
sg13
F5.393979166666667
sg14
I48000
sbag5
(g6
g7
NtRp1440
(dp1441
g10
I2
sg11
S'/home/ubuntu/AAS/data/unsup/drums/133.wav'
p1442
sg13
F10.787229166666666
sg14
I48000
sbag5
(g6
g7
NtRp1443
(dp1444
g10
I2
sg11
S'/home/ubuntu/AAS/data/unsup/drums/134.wav'
p1445
sg13
F10.787229166666666
sg14
I48000
sbag5
(g6
g7
NtRp1446
(dp1447
g10
I2
sg11
S'/home/ubuntu/AAS/data/unsup/drums/135.wav'
p1448
sg13
F10.787229166666666
sg14
I48000
sbag5
(g6
g7
NtRp1449
(dp1450
g10
I2
sg11
S'/home/ubuntu/AAS/data/unsup/drums/136.wav'
p1451
sg13
F10.787229166666666
sg14
I48000
sbag5
(g6
g7
NtRp1452
(dp1453
g10
I2
sg11
S'/home/ubuntu/AAS/data/unsup/drums/137.wav'
p1454
sg13
F10.787229166666666
sg14
I48000
sbag5
(g6
g7
NtRp1455
(dp1456
g10
I2
sg11
S'/home/ubuntu/AAS/data/unsup/drums/138.wav'
p1457
sg13
F10.787229166666666
sg14
I48000
sbag5
(g6
g7
NtRp1458
(dp1459
g10
I2
sg11
S'/home/ubuntu/AAS/data/unsup/drums/139.wav'
p1460
sg13
F10.787229166666666
sg14
I48000
sbag5
(g6
g7
NtRp1461
(dp1462
g10
I2
sg11
S'/home/ubuntu/AAS/data/unsup/drums/140.wav'
p1463
sg13
F4.0685208333333334
sg14
I48000
sbag5
(g6
g7
NtRp1464
(dp1465
g10
I2
sg11
S'/home/ubuntu/AAS/data/unsup/drums/141.wav'
p1466
sg13
F2.0346041666666665
sg14
I48000
sbag5
(g6
g7
NtRp1467
(dp1468
g10
I2
sg11
S'/home/ubuntu/AAS/data/unsup/drums/142.wav'
p1469
sg13
F4.0685208333333334
sg14
I48000
sbag5
(g6
g7
NtRp1470
(dp1471
g10
I2
sg11
S'/home/ubuntu/AAS/data/unsup/drums/143.wav'
p1472
sg13
F6.1024166666666666
sg14
I48000
sbag5
(g6
g7
NtRp1473
(dp1474
g10
I2
sg11
S'/home/ubuntu/AAS/data/unsup/drums/144.wav'
p1475
sg13
F6.1023958333333335
sg14
I48000
sbag5
(g6
g7
NtRp1476
(dp1477
g10
I2
sg11
S'/home/ubuntu/AAS/data/unsup/drums/145.wav'
p1478
sg13
F8.1363125000000007
sg14
I48000
sbag5
(g6
g7
NtRp1479
(dp1480
g10
I2
sg11
S'/home/ubuntu/AAS/data/unsup/drums/146.wav'
p1481
sg13
F4.0685000000000002
sg14
I48000
sbag5
(g6
g7
NtRp1482
(dp1483
g10
I2
sg11
S'/home/ubuntu/AAS/data/unsup/drums/147.wav'
p1484
sg13
F8.1363125000000007
sg14
I48000
sbag5
(g6
g7
NtRp1485
(dp1486
g10
I2
sg11
S'/home/ubuntu/AAS/data/unsup/drums/148.wav'
p1487
sg13
F8.1363125000000007
sg14
I48000
sbag5
(g6
g7
NtRp1488
(dp1489
g10
I2
sg11
S'/home/ubuntu/AAS/data/unsup/drums/149.wav'
p1490
sg13
F8.1363125000000007
sg14
I48000
sbag5
(g6
g7
NtRp1491
(dp1492
g10
I2
sg11
S'/home/ubuntu/AAS/data/unsup/drums/150.wav'
p1493
sg13
F11.429291666666666
sg14
I48000
sbag5
(g6
g7
NtRp1494
(dp1495
g10
I2
sg11
S'/home/ubuntu/AAS/data/unsup/drums/151.wav'
p1496
sg13
F11.429291666666666
sg14
I48000
sbag5
(g6
g7
NtRp1497
(dp1498
g10
I2
sg11
S'/home/ubuntu/AAS/data/unsup/drums/152.wav'
p1499
sg13
F11.429270833333334
sg14
I48000
sbag5
(g6
g7
NtRp1500
(dp1501
g10
I2
sg11
S'/home/ubuntu/AAS/data/unsup/drums/153.wav'
p1502
sg13
F11.429291666666666
sg14
I48000
sbag5
(g6
g7
NtRp1503
(dp1504
g10
I2
sg11
S'/home/ubuntu/AAS/data/unsup/drums/154.wav'
p1505
sg13
F5.7149999999999999
sg14
I48000
sbag5
(g6
g7
NtRp1506
(dp1507
g10
I2
sg11
S'/home/ubuntu/AAS/data/unsup/drums/155.wav'
p1508
sg13
F5.7149999999999999
sg14
I48000
sbag5
(g6
g7
NtRp1509
(dp1510
g10
I2
sg11
S'/home/ubuntu/AAS/data/unsup/drums/156.wav'
p1511
sg13
F5.7149999999999999
sg14
I48000
sbag5
(g6
g7
NtRp1512
(dp1513
g10
I2
sg11
S'/home/ubuntu/AAS/data/unsup/drums/157.wav'
p1514
sg13
F5.7149999999999999
sg14
I48000
sbag5
(g6
g7
NtRp1515
(dp1516
g10
I2
sg11
S'/home/ubuntu/AAS/data/unsup/drums/158.wav'
p1517
sg13
F11.429291666666666
sg14
I48000
sbag5
(g6
g7
NtRp1518
(dp1519
g10
I2
sg11
S'/home/ubuntu/AAS/data/unsup/drums/159.wav'
p1520
sg13
F11.429291666666666
sg14
I48000
sbag5
(g6
g7
NtRp1521
(dp1522
g10
I2
sg11
S'/home/ubuntu/AAS/data/unsup/drums/160.wav'
p1523
sg13
F11.429270833333334
sg14
I48000
sbag5
(g6
g7
NtRp1524
(dp1525
g10
I2
sg11
S'/home/ubuntu/AAS/data/unsup/drums/161.wav'
p1526
sg13
F11.429291666666666
sg14
I48000
sbag5
(g6
g7
NtRp1527
(dp1528
g10
I2
sg11
S'/home/ubuntu/AAS/data/unsup/drums/162.wav'
p1529
sg13
F11.429291666666666
sg14
I48000
sbag5
(g6
g7
NtRp1530
(dp1531
g10
I2
sg11
S'/home/ubuntu/AAS/data/unsup/drums/163.wav'
p1532
sg13
F11.429291666666666
sg14
I48000
sbag5
(g6
g7
NtRp1533
(dp1534
g10
I2
sg11
S'/home/ubuntu/AAS/data/unsup/drums/164.wav'
p1535
sg13
F11.429270833333334
sg14
I48000
sbag5
(g6
g7
NtRp1536
(dp1537
g10
I2
sg11
S'/home/ubuntu/AAS/data/unsup/drums/165.wav'
p1538
sg13
F11.429291666666666
sg14
I48000
sbag5
(g6
g7
NtRp1539
(dp1540
g10
I2
sg11
S'/home/ubuntu/AAS/data/unsup/drums/166.wav'
p1541
sg13
F12.000708333333334
sg14
I48000
sbag5
(g6
g7
NtRp1542
(dp1543
g10
I2
sg11
S'/home/ubuntu/AAS/data/unsup/drums/167.wav'
p1544
sg13
F12.000708333333334
sg14
I48000
sbag5
(g6
g7
NtRp1545
(dp1546
g10
I2
sg11
S'/home/ubuntu/AAS/data/unsup/drums/168.wav'
p1547
sg13
F6.0007083333333338
sg14
I48000
sbag5
(g6
g7
NtRp1548
(dp1549
g10
I2
sg11
S'/home/ubuntu/AAS/data/unsup/drums/169.wav'
p1550
sg13
F6.0007083333333338
sg14
I48000
sbag5
(g6
g7
NtRp1551
(dp1552
g10
I2
sg11
S'/home/ubuntu/AAS/data/unsup/drums/170.wav'
p1553
sg13
F12.000708333333334
sg14
I48000
sbag5
(g6
g7
NtRp1554
(dp1555
g10
I2
sg11
S'/home/ubuntu/AAS/data/unsup/drums/171.wav'
p1556
sg13
F12.000708333333334
sg14
I48000
sbag5
(g6
g7
NtRp1557
(dp1558
g10
I2
sg11
S'/home/ubuntu/AAS/data/unsup/drums/172.wav'
p1559
sg13
F11.250708333333334
sg14
I48000
sbag5
(g6
g7
NtRp1560
(dp1561
g10
I2
sg11
S'/home/ubuntu/AAS/data/unsup/drums/173.wav'
p1562
sg13
F12.000708333333334
sg14
I48000
sbag5
(g6
g7
NtRp1563
(dp1564
g10
I2
sg11
S'/home/ubuntu/AAS/data/unsup/drums/174.wav'
p1565
sg13
F6.3164999999999996
sg14
I48000
sbag5
(g6
g7
NtRp1566
(dp1567
g10
I2
sg11
S'/home/ubuntu/AAS/data/unsup/drums/175.wav'
p1568
sg13
F8.4217708333333334
sg14
I48000
sbag5
(g6
g7
NtRp1569
(dp1570
g10
I2
sg11
S'/home/ubuntu/AAS/data/unsup/drums/176.wav'
p1571
sg13
F8.4217708333333334
sg14
I48000
sbag5
(g6
g7
NtRp1572
(dp1573
g10
I2
sg11
S'/home/ubuntu/AAS/data/unsup/drums/177.wav'
p1574
sg13
F8.4217708333333334
sg14
I48000
sbaa(lp1575
g5
(g6
g7
NtRp1576
(dp1577
g10
I1
sg11
S'/home/ubuntu/AAS/data/unsup/acc/2/1.wav_.wav'
p1578
sg13
F72.605034013605447
sg14
I44100
sbag5
(g6
g7
NtRp1579
(dp1580
g10
I1
sg11
S'/home/ubuntu/AAS/data/unsup/acc/1/1.wav_.wav'
p1581
sg13
F72
sg14
I44100
sbag5
(g6
g7
NtRp1582
(dp1583
g10
I1
sg11
S'/home/ubuntu/AAS/data/unsup/acc/4/1.wav_.wav'
p1584
sg13
F192.54546485260772
sg14
I44100
sbag5
(g6
g7
NtRp1585
(dp1586
g10
I2
sg11
S'/home/ubuntu/AAS/data/unsup/acc/3/1.mp3'
p1587
sg13
F261
sg14
I44100
sbaa(lp1588
as.