(dp1
S'test'
p2
(lp3
(ccopy_reg
_reconstructor
p4
(cSample
Sample
p5
c__builtin__
object
p6
NtRp7
(dp8
S'channels'
p9
I2
sS'path'
p10
S'/home/ubuntu/AAS/data/DSD100/Mixtures/Test/033 - Sambasevam Shanmugam - Kaathaadi/mixture.wav'
p11
sS'duration'
p12
F317.879456
sS'sample_rate'
p13
I44100
sbg4
(g5
g6
NtRp14
(dp15
g9
I2
sg10
S'/home/ubuntu/AAS/data/DSD100/Mixtures/Test/033 - Sambasevam Shanmugam - Kaathaadi/remainingmix.wav'
p16
sg12
F317.879456
sg13
I44100
sbg4
(g5
g6
NtRp17
(dp18
g9
I2
sg10
S'/home/ubuntu/AAS/data/DSD100/Sources/Test/033 - Sambasevam Shanmugam - Kaathaadi/drums.wav'
p19
sg12
F317.879456
sg13
I44100
sbtp20
a(g4
(g5
g6
NtRp21
(dp22
g9
I2
sg10
S'/home/ubuntu/AAS/data/DSD100/Mixtures/Test/034 - Secretariat - Over The Top/mixture.wav'
p23
sg12
F251.09587300000001
sg13
I44100
sbg4
(g5
g6
NtRp24
(dp25
g9
I2
sg10
S'/home/ubuntu/AAS/data/DSD100/Mixtures/Test/034 - Secretariat - Over The Top/remainingmix.wav'
p26
sg12
F251.09587300000001
sg13
I44100
sbg4
(g5
g6
NtRp27
(dp28
g9
I2
sg10
S'/home/ubuntu/AAS/data/DSD100/Sources/Test/034 - Secretariat - Over The Top/drums.wav'
p29
sg12
F251.09587300000001
sg13
I44100
sbtp30
a(g4
(g5
g6
NtRp31
(dp32
g9
I2
sg10
S'/home/ubuntu/AAS/data/DSD100/Mixtures/Test/035 - Signe Jakobsen - What Have You Done To Me/mixture.wav'
p33
sg12
F177.397324
sg13
I44100
sbg4
(g5
g6
NtRp34
(dp35
g9
I2
sg10
S'/home/ubuntu/AAS/data/DSD100/Mixtures/Test/035 - Signe Jakobsen - What Have You Done To Me/remainingmix.wav'
p36
sg12
F177.397324
sg13
I44100
sbg4
(g5
g6
NtRp37
(dp38
g9
I2
sg10
S'/home/ubuntu/AAS/data/DSD100/Sources/Test/035 - Signe Jakobsen - What Have You Done To Me/drums.wav'
p39
sg12
F177.397324
sg13
I44100
sbtp40
a(g4
(g5
g6
NtRp41
(dp42
g9
I2
sg10
S'/home/ubuntu/AAS/data/DSD100/Mixtures/Test/036 - Skelpolu - Resurrection/mixture.wav'
p43
sg12
F395.66292499999997
sg13
I44100
sbg4
(g5
g6
NtRp44
(dp45
g9
I2
sg10
S'/home/ubuntu/AAS/data/DSD100/Mixtures/Test/036 - Skelpolu - Resurrection/remainingmix.wav'
p46
sg12
F395.66292499999997
sg13
I44100
sbg4
(g5
g6
NtRp47
(dp48
g9
I2
sg10
S'/home/ubuntu/AAS/data/DSD100/Sources/Test/036 - Skelpolu - Resurrection/drums.wav'
p49
sg12
F395.66292499999997
sg13
I44100
sbtp50
a(g4
(g5
g6
NtRp51
(dp52
g9
I2
sg10
S'/home/ubuntu/AAS/data/DSD100/Mixtures/Test/037 - Speak Softly - Broken Man/mixture.wav'
p53
sg12
F253.16018099999999
sg13
I44100
sbg4
(g5
g6
NtRp54
(dp55
g9
I2
sg10
S'/home/ubuntu/AAS/data/DSD100/Mixtures/Test/037 - Speak Softly - Broken Man/remainingmix.wav'
p56
sg12
F253.16018099999999
sg13
I44100
sbg4
(g5
g6
NtRp57
(dp58
g9
I2
sg10
S'/home/ubuntu/AAS/data/DSD100/Sources/Test/037 - Speak Softly - Broken Man/drums.wav'
p59
sg12
F253.16018099999999
sg13
I44100
sbtp60
a(g4
(g5
g6
NtRp61
(dp62
g9
I2
sg10
S"/home/ubuntu/AAS/data/DSD100/Mixtures/Test/038 - Spike Mullings - Mike's Sulking/mixture.wav"
p63
sg12
F256.87498900000003
sg13
I44100
sbg4
(g5
g6
NtRp64
(dp65
g9
I2
sg10
S"/home/ubuntu/AAS/data/DSD100/Mixtures/Test/038 - Spike Mullings - Mike's Sulking/remainingmix.wav"
p66
sg12
F256.87498900000003
sg13
I44100
sbg4
(g5
g6
NtRp67
(dp68
g9
I2
sg10
S"/home/ubuntu/AAS/data/DSD100/Sources/Test/038 - Spike Mullings - Mike's Sulking/drums.wav"
p69
sg12
F256.87498900000003
sg13
I44100
sbtp70
a(g4
(g5
g6
NtRp71
(dp72
g9
I2
sg10
S'/home/ubuntu/AAS/data/DSD100/Mixtures/Test/022 - Johnny Lokke - Promises & Lies/mixture.wav'
p73
sg12
F286
sg13
I44100
sbg4
(g5
g6
NtRp74
(dp75
g9
I2
sg10
S'/home/ubuntu/AAS/data/DSD100/Mixtures/Test/022 - Johnny Lokke - Promises & Lies/remainingmix.wav'
p76
sg12
F286
sg13
I44100
sbg4
(g5
g6
NtRp77
(dp78
g9
I2
sg10
S'/home/ubuntu/AAS/data/DSD100/Sources/Test/022 - Johnny Lokke - Promises & Lies/drums.wav'
p79
sg12
F286
sg13
I44100
sbtp80
a(g4
(g5
g6
NtRp81
(dp82
g9
I2
sg10
S'/home/ubuntu/AAS/data/DSD100/Mixtures/Test/023 - Jokers, Jacks & Kings - Sea Of Leaves/mixture.wav'
p83
sg12
F191.651791
sg13
I44100
sbg4
(g5
g6
NtRp84
(dp85
g9
I2
sg10
S'/home/ubuntu/AAS/data/DSD100/Mixtures/Test/023 - Jokers, Jacks & Kings - Sea Of Leaves/remainingmix.wav'
p86
sg12
F191.651791
sg13
I44100
sbg4
(g5
g6
NtRp87
(dp88
g9
I2
sg10
S'/home/ubuntu/AAS/data/DSD100/Sources/Test/023 - Jokers, Jacks & Kings - Sea Of Leaves/drums.wav'
p89
sg12
F191.651791
sg13
I44100
sbtp90
a(g4
(g5
g6
NtRp91
(dp92
g9
I2
sg10
S'/home/ubuntu/AAS/data/DSD100/Mixtures/Test/024 - Leaf - Come Around/mixture.wav'
p93
sg12
F264.58036299999998
sg13
I44100
sbg4
(g5
g6
NtRp94
(dp95
g9
I2
sg10
S'/home/ubuntu/AAS/data/DSD100/Mixtures/Test/024 - Leaf - Come Around/remainingmix.wav'
p96
sg12
F264.58036299999998
sg13
I44100
sbg4
(g5
g6
NtRp97
(dp98
g9
I2
sg10
S'/home/ubuntu/AAS/data/DSD100/Sources/Test/024 - Leaf - Come Around/drums.wav'
p99
sg12
F264.58036299999998
sg13
I44100
sbtp100
a(g4
(g5
g6
NtRp101
(dp102
g9
I2
sg10
S'/home/ubuntu/AAS/data/DSD100/Mixtures/Test/025 - Leaf - Wicked/mixture.wav'
p103
sg12
F190.82142899999999
sg13
I44100
sbg4
(g5
g6
NtRp104
(dp105
g9
I2
sg10
S'/home/ubuntu/AAS/data/DSD100/Mixtures/Test/025 - Leaf - Wicked/remainingmix.wav'
p106
sg12
F190.82142899999999
sg13
I44100
sbg4
(g5
g6
NtRp107
(dp108
g9
I2
sg10
S'/home/ubuntu/AAS/data/DSD100/Sources/Test/025 - Leaf - Wicked/drums.wav'
p109
sg12
F190.82142899999999
sg13
I44100
sbtp110
a(g4
(g5
g6
NtRp111
(dp112
g9
I2
sg10
S'/home/ubuntu/AAS/data/DSD100/Mixtures/Test/026 - Louis Cressy Band - Good Time/mixture.wav'
p113
sg12
F292.82142900000002
sg13
I44100
sbg4
(g5
g6
NtRp114
(dp115
g9
I2
sg10
S'/home/ubuntu/AAS/data/DSD100/Mixtures/Test/026 - Louis Cressy Band - Good Time/remainingmix.wav'
p116
sg12
F292.82142900000002
sg13
I44100
sbg4
(g5
g6
NtRp117
(dp118
g9
I2
sg10
S'/home/ubuntu/AAS/data/DSD100/Sources/Test/026 - Louis Cressy Band - Good Time/drums.wav'
p119
sg12
F292.82142900000002
sg13
I44100
sbtp120
a(g4
(g5
g6
NtRp121
(dp122
g9
I2
sg10
S'/home/ubuntu/AAS/data/DSD100/Mixtures/Test/027 - M.E.R.C. Music - Knockout/mixture.wav'
p123
sg12
F270
sg13
I44100
sbg4
(g5
g6
NtRp124
(dp125
g9
I2
sg10
S'/home/ubuntu/AAS/data/DSD100/Mixtures/Test/027 - M.E.R.C. Music - Knockout/remainingmix.wav'
p126
sg12
F270
sg13
I44100
sbg4
(g5
g6
NtRp127
(dp128
g9
I2
sg10
S'/home/ubuntu/AAS/data/DSD100/Sources/Test/027 - M.E.R.C. Music - Knockout/drums.wav'
p129
sg12
F270
sg13
I44100
sbtp130
a(g4
(g5
g6
NtRp131
(dp132
g9
I2
sg10
S'/home/ubuntu/AAS/data/DSD100/Mixtures/Test/028 - Motor Tapes - Shore/mixture.wav'
p133
sg12
F246.72322
sg13
I44100
sbg4
(g5
g6
NtRp134
(dp135
g9
I2
sg10
S'/home/ubuntu/AAS/data/DSD100/Mixtures/Test/028 - Motor Tapes - Shore/remainingmix.wav'
p136
sg12
F246.72322
sg13
I44100
sbg4
(g5
g6
NtRp137
(dp138
g9
I2
sg10
S'/home/ubuntu/AAS/data/DSD100/Sources/Test/028 - Motor Tapes - Shore/drums.wav'
p139
sg12
F246.72322
sg13
I44100
sbtp140
a(g4
(g5
g6
NtRp141
(dp142
g9
I2
sg10
S'/home/ubuntu/AAS/data/DSD100/Mixtures/Test/029 - Nerve 9 - Pray For The Rain/mixture.wav'
p143
sg12
F343.71428600000002
sg13
I44100
sbg4
(g5
g6
NtRp144
(dp145
g9
I2
sg10
S'/home/ubuntu/AAS/data/DSD100/Mixtures/Test/029 - Nerve 9 - Pray For The Rain/remainingmix.wav'
p146
sg12
F343.71428600000002
sg13
I44100
sbg4
(g5
g6
NtRp147
(dp148
g9
I2
sg10
S'/home/ubuntu/AAS/data/DSD100/Sources/Test/029 - Nerve 9 - Pray For The Rain/drums.wav'
p149
sg12
F343.71428600000002
sg13
I44100
sbtp150
a(g4
(g5
g6
NtRp151
(dp152
g9
I2
sg10
S'/home/ubuntu/AAS/data/DSD100/Mixtures/Test/013 - Drumtracks - Ghost Bitch/mixture.wav'
p153
sg12
F357.09374100000002
sg13
I44100
sbg4
(g5
g6
NtRp154
(dp155
g9
I2
sg10
S'/home/ubuntu/AAS/data/DSD100/Mixtures/Test/013 - Drumtracks - Ghost Bitch/remainingmix.wav'
p156
sg12
F357.09374100000002
sg13
I44100
sbg4
(g5
g6
NtRp157
(dp158
g9
I2
sg10
S'/home/ubuntu/AAS/data/DSD100/Sources/Test/013 - Drumtracks - Ghost Bitch/drums.wav'
p159
sg12
F357.09374100000002
sg13
I44100
sbtp160
a(g4
(g5
g6
NtRp161
(dp162
g9
I2
sg10
S'/home/ubuntu/AAS/data/DSD100/Mixtures/Test/014 - Fergessen - Back From The Start/mixture.wav'
p163
sg12
F168.74553299999999
sg13
I44100
sbg4
(g5
g6
NtRp164
(dp165
g9
I2
sg10
S'/home/ubuntu/AAS/data/DSD100/Mixtures/Test/014 - Fergessen - Back From The Start/remainingmix.wav'
p166
sg12
F168.74553299999999
sg13
I44100
sbg4
(g5
g6
NtRp167
(dp168
g9
I2
sg10
S'/home/ubuntu/AAS/data/DSD100/Sources/Test/014 - Fergessen - Back From The Start/drums.wav'
p169
sg12
F168.74553299999999
sg13
I44100
sbtp170
a(g4
(g5
g6
NtRp171
(dp172
g9
I2
sg10
S'/home/ubuntu/AAS/data/DSD100/Mixtures/Test/015 - Fergessen - The Wind/mixture.wav'
p173
sg12
F192
sg13
I44100
sbg4
(g5
g6
NtRp174
(dp175
g9
I2
sg10
S'/home/ubuntu/AAS/data/DSD100/Mixtures/Test/015 - Fergessen - The Wind/remainingmix.wav'
p176
sg12
F192
sg13
I44100
sbg4
(g5
g6
NtRp177
(dp178
g9
I2
sg10
S'/home/ubuntu/AAS/data/DSD100/Sources/Test/015 - Fergessen - The Wind/drums.wav'
p179
sg12
F192
sg13
I44100
sbtp180
a(g4
(g5
g6
NtRp181
(dp182
g9
I2
sg10
S'/home/ubuntu/AAS/data/DSD100/Mixtures/Test/016 - Forkupines - Semantics/mixture.wav'
p183
sg12
F273.58483000000001
sg13
I44100
sbg4
(g5
g6
NtRp184
(dp185
g9
I2
sg10
S'/home/ubuntu/AAS/data/DSD100/Mixtures/Test/016 - Forkupines - Semantics/remainingmix.wav'
p186
sg12
F273.58483000000001
sg13
I44100
sbg4
(g5
g6
NtRp187
(dp188
g9
I2
sg10
S'/home/ubuntu/AAS/data/DSD100/Sources/Test/016 - Forkupines - Semantics/drums.wav'
p189
sg12
F273.58483000000001
sg13
I44100
sbtp190
a(g4
(g5
g6
NtRp191
(dp192
g9
I2
sg10
S'/home/ubuntu/AAS/data/DSD100/Mixtures/Test/017 - Girls Under Glass - We Feel Alright/mixture.wav'
p193
sg12
F317.28124700000001
sg13
I44100
sbg4
(g5
g6
NtRp194
(dp195
g9
I2
sg10
S'/home/ubuntu/AAS/data/DSD100/Mixtures/Test/017 - Girls Under Glass - We Feel Alright/remainingmix.wav'
p196
sg12
F317.28124700000001
sg13
I44100
sbg4
(g5
g6
NtRp197
(dp198
g9
I2
sg10
S'/home/ubuntu/AAS/data/DSD100/Sources/Test/017 - Girls Under Glass - We Feel Alright/drums.wav'
p199
sg12
F317.28124700000001
sg13
I44100
sbtp200
a(g4
(g5
g6
NtRp201
(dp202
g9
I2
sg10
S'/home/ubuntu/AAS/data/DSD100/Mixtures/Test/018 - Hollow Ground - Ill Fate/mixture.wav'
p203
sg12
F141.674104
sg13
I44100
sbg4
(g5
g6
NtRp204
(dp205
g9
I2
sg10
S'/home/ubuntu/AAS/data/DSD100/Mixtures/Test/018 - Hollow Ground - Ill Fate/remainingmix.wav'
p206
sg12
F141.674104
sg13
I44100
sbg4
(g5
g6
NtRp207
(dp208
g9
I2
sg10
S'/home/ubuntu/AAS/data/DSD100/Sources/Test/018 - Hollow Ground - Ill Fate/drums.wav'
p209
sg12
F141.674104
sg13
I44100
sbtp210
a(g4
(g5
g6
NtRp211
(dp212
g9
I2
sg10
S'/home/ubuntu/AAS/data/DSD100/Mixtures/Test/019 - James Elder & Mark M Thompson - The English Actor/mixture.wav'
p213
sg12
F205.47322
sg13
I44100
sbg4
(g5
g6
NtRp214
(dp215
g9
I2
sg10
S'/home/ubuntu/AAS/data/DSD100/Mixtures/Test/019 - James Elder & Mark M Thompson - The English Actor/remainingmix.wav'
p216
sg12
F205.47322
sg13
I44100
sbg4
(g5
g6
NtRp217
(dp218
g9
I2
sg10
S'/home/ubuntu/AAS/data/DSD100/Sources/Test/019 - James Elder & Mark M Thompson - The English Actor/drums.wav'
p219
sg12
F205.47322
sg13
I44100
sbtp220
a(g4
(g5
g6
NtRp221
(dp222
g9
I2
sg10
S'/home/ubuntu/AAS/data/DSD100/Mixtures/Test/020 - James May - Dont Let Go/mixture.wav'
p223
sg12
F242.14285699999999
sg13
I44100
sbg4
(g5
g6
NtRp224
(dp225
g9
I2
sg10
S'/home/ubuntu/AAS/data/DSD100/Mixtures/Test/020 - James May - Dont Let Go/remainingmix.wav'
p226
sg12
F242.14285699999999
sg13
I44100
sbg4
(g5
g6
NtRp227
(dp228
g9
I2
sg10
S'/home/ubuntu/AAS/data/DSD100/Sources/Test/020 - James May - Dont Let Go/drums.wav'
p229
sg12
F242.14285699999999
sg13
I44100
sbtp230
a(g4
(g5
g6
NtRp231
(dp232
g9
I2
sg10
S'/home/ubuntu/AAS/data/DSD100/Mixtures/Test/021 - James May - On The Line/mixture.wav'
p233
sg12
F256.272313
sg13
I44100
sbg4
(g5
g6
NtRp234
(dp235
g9
I2
sg10
S'/home/ubuntu/AAS/data/DSD100/Mixtures/Test/021 - James May - On The Line/remainingmix.wav'
p236
sg12
F256.272313
sg13
I44100
sbg4
(g5
g6
NtRp237
(dp238
g9
I2
sg10
S'/home/ubuntu/AAS/data/DSD100/Sources/Test/021 - James May - On The Line/drums.wav'
p239
sg12
F256.272313
sg13
I44100
sbtp240
a(g4
(g5
g6
NtRp241
(dp242
g9
I2
sg10
S'/home/ubuntu/AAS/data/DSD100/Mixtures/Test/030 - Patrick Talbot - A Reason To Leave/mixture.wav'
p243
sg12
F259.74553300000002
sg13
I44100
sbg4
(g5
g6
NtRp244
(dp245
g9
I2
sg10
S'/home/ubuntu/AAS/data/DSD100/Mixtures/Test/030 - Patrick Talbot - A Reason To Leave/remainingmix.wav'
p246
sg12
F259.74553300000002
sg13
I44100
sbg4
(g5
g6
NtRp247
(dp248
g9
I2
sg10
S'/home/ubuntu/AAS/data/DSD100/Sources/Test/030 - Patrick Talbot - A Reason To Leave/drums.wav'
p249
sg12
F259.74553300000002
sg13
I44100
sbtp250
a(g4
(g5
g6
NtRp251
(dp252
g9
I2
sg10
S'/home/ubuntu/AAS/data/DSD100/Mixtures/Test/039 - Swinging Steaks - Lost My Way/mixture.wav'
p253
sg12
F310.14734700000002
sg13
I44100
sbg4
(g5
g6
NtRp254
(dp255
g9
I2
sg10
S'/home/ubuntu/AAS/data/DSD100/Mixtures/Test/039 - Swinging Steaks - Lost My Way/remainingmix.wav'
p256
sg12
F310.14734700000002
sg13
I44100
sbg4
(g5
g6
NtRp257
(dp258
g9
I2
sg10
S'/home/ubuntu/AAS/data/DSD100/Sources/Test/039 - Swinging Steaks - Lost My Way/drums.wav'
p259
sg12
F310.14734700000002
sg13
I44100
sbtp260
asS'train_sup'
p261
(lp262
(g4
(g5
g6
NtRp263
(dp264
g9
I2
sg10
S'/home/ubuntu/AAS/data/DSD100/Mixtures/Dev/051 - AM Contra - Heart Peripheral/mixture.wav'
p265
sg12
F210.10576
sg13
I44100
sbg4
(g5
g6
NtRp266
(dp267
g9
I2
sg10
S'/home/ubuntu/AAS/data/DSD100/Mixtures/Dev/051 - AM Contra - Heart Peripheral/remainingmix.wav'
p268
sg12
F210.10576
sg13
I44100
sbg4
(g5
g6
NtRp269
(dp270
g9
I2
sg10
S'/home/ubuntu/AAS/data/DSD100/Sources/Dev/051 - AM Contra - Heart Peripheral/drums.wav'
p271
sg12
F210.10576
sg13
I44100
sbtp272
a(g4
(g5
g6
NtRp273
(dp274
g9
I2
sg10
S'/home/ubuntu/AAS/data/DSD100/Mixtures/Dev/052 - ANiMAL - Easy Tiger/mixture.wav'
p275
sg12
F205.65789100000001
sg13
I44100
sbg4
(g5
g6
NtRp276
(dp277
g9
I2
sg10
S'/home/ubuntu/AAS/data/DSD100/Mixtures/Dev/052 - ANiMAL - Easy Tiger/remainingmix.wav'
p278
sg12
F205.65789100000001
sg13
I44100
sbg4
(g5
g6
NtRp279
(dp280
g9
I2
sg10
S'/home/ubuntu/AAS/data/DSD100/Sources/Dev/052 - ANiMAL - Easy Tiger/drums.wav'
p281
sg12
F205.65789100000001
sg13
I44100
sbtp282
a(g4
(g5
g6
NtRp283
(dp284
g9
I2
sg10
S"/home/ubuntu/AAS/data/DSD100/Mixtures/Dev/053 - Actions - Devil's Words/mixture.wav"
p285
sg12
F196.80768699999999
sg13
I44100
sbg4
(g5
g6
NtRp286
(dp287
g9
I2
sg10
S"/home/ubuntu/AAS/data/DSD100/Mixtures/Dev/053 - Actions - Devil's Words/remainingmix.wav"
p288
sg12
F196.80768699999999
sg13
I44100
sbg4
(g5
g6
NtRp289
(dp290
g9
I2
sg10
S"/home/ubuntu/AAS/data/DSD100/Sources/Dev/053 - Actions - Devil's Words/drums.wav"
p291
sg12
F196.80768699999999
sg13
I44100
sbtp292
a(g4
(g5
g6
NtRp293
(dp294
g9
I2
sg10
S'/home/ubuntu/AAS/data/DSD100/Mixtures/Dev/054 - Actions - South Of The Water/mixture.wav'
p295
sg12
F176.80287999999999
sg13
I44100
sbg4
(g5
g6
NtRp296
(dp297
g9
I2
sg10
S'/home/ubuntu/AAS/data/DSD100/Mixtures/Dev/054 - Actions - South Of The Water/remainingmix.wav'
p298
sg12
F176.80287999999999
sg13
I44100
sbg4
(g5
g6
NtRp299
(dp300
g9
I2
sg10
S'/home/ubuntu/AAS/data/DSD100/Sources/Dev/054 - Actions - South Of The Water/drums.wav'
p301
sg12
F176.80287999999999
sg13
I44100
sbtp302
a(g4
(g5
g6
NtRp303
(dp304
g9
I2
sg10
S"/home/ubuntu/AAS/data/DSD100/Mixtures/Dev/055 - Angels In Amplifiers - I'm Alright/mixture.wav"
p305
sg12
F179.59374099999999
sg13
I44100
sbg4
(g5
g6
NtRp306
(dp307
g9
I2
sg10
S"/home/ubuntu/AAS/data/DSD100/Mixtures/Dev/055 - Angels In Amplifiers - I'm Alright/remainingmix.wav"
p308
sg12
F179.59374099999999
sg13
I44100
sbg4
(g5
g6
NtRp309
(dp310
g9
I2
sg10
S"/home/ubuntu/AAS/data/DSD100/Sources/Dev/055 - Angels In Amplifiers - I'm Alright/drums.wav"
p311
sg12
F179.59374099999999
sg13
I44100
sbtp312
a(g4
(g5
g6
NtRp313
(dp314
g9
I2
sg10
S'/home/ubuntu/AAS/data/DSD100/Mixtures/Dev/056 - Arise - Run Run Run/mixture.wav'
p315
sg12
F219.39285699999999
sg13
I44100
sbg4
(g5
g6
NtRp316
(dp317
g9
I2
sg10
S'/home/ubuntu/AAS/data/DSD100/Mixtures/Dev/056 - Arise - Run Run Run/remainingmix.wav'
p318
sg12
F219.39285699999999
sg13
I44100
sbg4
(g5
g6
NtRp319
(dp320
g9
I2
sg10
S'/home/ubuntu/AAS/data/DSD100/Sources/Dev/056 - Arise - Run Run Run/drums.wav'
p321
sg12
F219.39285699999999
sg13
I44100
sbtp322
a(g4
(g5
g6
NtRp323
(dp324
g9
I2
sg10
S'/home/ubuntu/AAS/data/DSD100/Mixtures/Dev/057 - BKS - Bulldozer/mixture.wav'
p325
sg12
F337.04018100000002
sg13
I44100
sbg4
(g5
g6
NtRp326
(dp327
g9
I2
sg10
S'/home/ubuntu/AAS/data/DSD100/Mixtures/Dev/057 - BKS - Bulldozer/remainingmix.wav'
p328
sg12
F337.04018100000002
sg13
I44100
sbg4
(g5
g6
NtRp329
(dp330
g9
I2
sg10
S'/home/ubuntu/AAS/data/DSD100/Sources/Dev/057 - BKS - Bulldozer/drums.wav'
p331
sg12
F337.04018100000002
sg13
I44100
sbtp332
a(g4
(g5
g6
NtRp333
(dp334
g9
I2
sg10
S"/home/ubuntu/AAS/data/DSD100/Mixtures/Dev/058 - Ben Carrigan - We'll Talk About It All Tonight/mixture.wav"
p335
sg12
F254.91070300000001
sg13
I44100
sbg4
(g5
g6
NtRp336
(dp337
g9
I2
sg10
S"/home/ubuntu/AAS/data/DSD100/Mixtures/Dev/058 - Ben Carrigan - We'll Talk About It All Tonight/remainingmix.wav"
p338
sg12
F254.91070300000001
sg13
I44100
sbg4
(g5
g6
NtRp339
(dp340
g9
I2
sg10
S"/home/ubuntu/AAS/data/DSD100/Sources/Dev/058 - Ben Carrigan - We'll Talk About It All Tonight/drums.wav"
p341
sg12
F254.91070300000001
sg13
I44100
sbtp342
a(g4
(g5
g6
NtRp343
(dp344
g9
I2
sg10
S'/home/ubuntu/AAS/data/DSD100/Mixtures/Dev/094 - Titanium - Haunted Age/mixture.wav'
p345
sg12
F248.28879800000001
sg13
I44100
sbg4
(g5
g6
NtRp346
(dp347
g9
I2
sg10
S'/home/ubuntu/AAS/data/DSD100/Mixtures/Dev/094 - Titanium - Haunted Age/remainingmix.wav'
p348
sg12
F248.28879800000001
sg13
I44100
sbg4
(g5
g6
NtRp349
(dp350
g9
I2
sg10
S'/home/ubuntu/AAS/data/DSD100/Sources/Dev/094 - Titanium - Haunted Age/drums.wav'
p351
sg12
F248.28879800000001
sg13
I44100
sbtp352
a(g4
(g5
g6
NtRp353
(dp354
g9
I2
sg10
S'/home/ubuntu/AAS/data/DSD100/Mixtures/Dev/095 - Traffic Experiment - Once More (With Feeling)/mixture.wav'
p355
sg12
F435.262585
sg13
I44100
sbg4
(g5
g6
NtRp356
(dp357
g9
I2
sg10
S'/home/ubuntu/AAS/data/DSD100/Mixtures/Dev/095 - Traffic Experiment - Once More (With Feeling)/remainingmix.wav'
p358
sg12
F435.262585
sg13
I44100
sbg4
(g5
g6
NtRp359
(dp360
g9
I2
sg10
S'/home/ubuntu/AAS/data/DSD100/Sources/Dev/095 - Traffic Experiment - Once More (With Feeling)/drums.wav'
p361
sg12
F435.262585
sg13
I44100
sbtp362
a(g4
(g5
g6
NtRp363
(dp364
g9
I2
sg10
S'/home/ubuntu/AAS/data/DSD100/Mixtures/Dev/096 - Triviul - Angelsaint/mixture.wav'
p365
sg12
F236.89922899999999
sg13
I44100
sbg4
(g5
g6
NtRp366
(dp367
g9
I2
sg10
S'/home/ubuntu/AAS/data/DSD100/Mixtures/Dev/096 - Triviul - Angelsaint/remainingmix.wav'
p368
sg12
F236.89922899999999
sg13
I44100
sbg4
(g5
g6
NtRp369
(dp370
g9
I2
sg10
S'/home/ubuntu/AAS/data/DSD100/Sources/Dev/096 - Triviul - Angelsaint/drums.wav'
p371
sg12
F236.89922899999999
sg13
I44100
sbtp372
a(g4
(g5
g6
NtRp373
(dp374
g9
I2
sg10
S'/home/ubuntu/AAS/data/DSD100/Mixtures/Dev/097 - Triviul feat. The Fiend - Widow/mixture.wav'
p375
sg12
F235.10968299999999
sg13
I44100
sbg4
(g5
g6
NtRp376
(dp377
g9
I2
sg10
S'/home/ubuntu/AAS/data/DSD100/Mixtures/Dev/097 - Triviul feat. The Fiend - Widow/remainingmix.wav'
p378
sg12
F235.10968299999999
sg13
I44100
sbg4
(g5
g6
NtRp379
(dp380
g9
I2
sg10
S'/home/ubuntu/AAS/data/DSD100/Sources/Dev/097 - Triviul feat. The Fiend - Widow/drums.wav'
p381
sg12
F235.10968299999999
sg13
I44100
sbtp382
a(g4
(g5
g6
NtRp383
(dp384
g9
I2
sg10
S'/home/ubuntu/AAS/data/DSD100/Mixtures/Dev/098 - Wall Of Death - Femme/mixture.wav'
p385
sg12
F239.11607699999999
sg13
I44100
sbg4
(g5
g6
NtRp386
(dp387
g9
I2
sg10
S'/home/ubuntu/AAS/data/DSD100/Mixtures/Dev/098 - Wall Of Death - Femme/remainingmix.wav'
p388
sg12
F239.11607699999999
sg13
I44100
sbg4
(g5
g6
NtRp389
(dp390
g9
I2
sg10
S'/home/ubuntu/AAS/data/DSD100/Sources/Dev/098 - Wall Of Death - Femme/drums.wav'
p391
sg12
F239.11607699999999
sg13
I44100
sbtp392
a(g4
(g5
g6
NtRp393
(dp394
g9
I2
sg10
S'/home/ubuntu/AAS/data/DSD100/Mixtures/Dev/099 - Young Griffo - Blood To Bone/mixture.wav'
p395
sg12
F254.583741
sg13
I44100
sbg4
(g5
g6
NtRp396
(dp397
g9
I2
sg10
S'/home/ubuntu/AAS/data/DSD100/Mixtures/Dev/099 - Young Griffo - Blood To Bone/remainingmix.wav'
p398
sg12
F254.583741
sg13
I44100
sbg4
(g5
g6
NtRp399
(dp400
g9
I2
sg10
S'/home/ubuntu/AAS/data/DSD100/Sources/Dev/099 - Young Griffo - Blood To Bone/drums.wav'
p401
sg12
F254.583741
sg13
I44100
sbtp402
a(g4
(g5
g6
NtRp403
(dp404
g9
I2
sg10
S'/home/ubuntu/AAS/data/DSD100/Mixtures/Dev/100 - Young Griffo - Pennies/mixture.wav'
p405
sg12
F277.99446699999999
sg13
I44100
sbg4
(g5
g6
NtRp406
(dp407
g9
I2
sg10
S'/home/ubuntu/AAS/data/DSD100/Mixtures/Dev/100 - Young Griffo - Pennies/remainingmix.wav'
p408
sg12
F277.99446699999999
sg13
I44100
sbg4
(g5
g6
NtRp409
(dp410
g9
I2
sg10
S'/home/ubuntu/AAS/data/DSD100/Sources/Dev/100 - Young Griffo - Pennies/drums.wav'
p411
sg12
F277.99446699999999
sg13
I44100
sbtp412
a(g4
(g5
g6
NtRp413
(dp414
g9
I2
sg10
S'/home/ubuntu/AAS/data/DSD100/Mixtures/Dev/084 - Secretariat - Borderline/mixture.wav'
p415
sg12
F286.84562399999999
sg13
I44100
sbg4
(g5
g6
NtRp416
(dp417
g9
I2
sg10
S'/home/ubuntu/AAS/data/DSD100/Mixtures/Dev/084 - Secretariat - Borderline/remainingmix.wav'
p418
sg12
F286.84562399999999
sg13
I44100
sbg4
(g5
g6
NtRp419
(dp420
g9
I2
sg10
S'/home/ubuntu/AAS/data/DSD100/Sources/Dev/084 - Secretariat - Borderline/drums.wav'
p421
sg12
F286.84562399999999
sg13
I44100
sbtp422
a(g4
(g5
g6
NtRp423
(dp424
g9
I2
sg10
S'/home/ubuntu/AAS/data/DSD100/Mixtures/Dev/085 - Side Effects Project - Sing With Me/mixture.wav'
p425
sg12
F243.68303900000001
sg13
I44100
sbg4
(g5
g6
NtRp426
(dp427
g9
I2
sg10
S'/home/ubuntu/AAS/data/DSD100/Mixtures/Dev/085 - Side Effects Project - Sing With Me/remainingmix.wav'
p428
sg12
F243.68303900000001
sg13
I44100
sbg4
(g5
g6
NtRp429
(dp430
g9
I2
sg10
S'/home/ubuntu/AAS/data/DSD100/Sources/Dev/085 - Side Effects Project - Sing With Me/drums.wav'
p431
sg12
F243.68303900000001
sg13
I44100
sbtp432
a(g4
(g5
g6
NtRp433
(dp434
g9
I2
sg10
S'/home/ubuntu/AAS/data/DSD100/Mixtures/Dev/086 - Skelpolu - Human Mistakes/mixture.wav'
p435
sg12
F324.68571400000002
sg13
I44100
sbg4
(g5
g6
NtRp436
(dp437
g9
I2
sg10
S'/home/ubuntu/AAS/data/DSD100/Mixtures/Dev/086 - Skelpolu - Human Mistakes/remainingmix.wav'
p438
sg12
F324.68571400000002
sg13
I44100
sbg4
(g5
g6
NtRp439
(dp440
g9
I2
sg10
S'/home/ubuntu/AAS/data/DSD100/Sources/Dev/086 - Skelpolu - Human Mistakes/drums.wav'
p441
sg12
F324.68571400000002
sg13
I44100
sbtp442
a(g4
(g5
g6
NtRp443
(dp444
g9
I2
sg10
S'/home/ubuntu/AAS/data/DSD100/Mixtures/Dev/087 - Skelpolu - Together Alone/mixture.wav'
p445
sg12
F326.000023
sg13
I44100
sbg4
(g5
g6
NtRp446
(dp447
g9
I2
sg10
S'/home/ubuntu/AAS/data/DSD100/Mixtures/Dev/087 - Skelpolu - Together Alone/remainingmix.wav'
p448
sg12
F326.000023
sg13
I44100
sbg4
(g5
g6
NtRp449
(dp450
g9
I2
sg10
S'/home/ubuntu/AAS/data/DSD100/Sources/Dev/087 - Skelpolu - Together Alone/drums.wav'
p451
sg12
F326.000023
sg13
I44100
sbtp452
a(g4
(g5
g6
NtRp453
(dp454
g9
I2
sg10
S'/home/ubuntu/AAS/data/DSD100/Mixtures/Dev/088 - Speak Softly - Like Horses/mixture.wav'
p455
sg12
F312.66666700000002
sg13
I44100
sbg4
(g5
g6
NtRp456
(dp457
g9
I2
sg10
S'/home/ubuntu/AAS/data/DSD100/Mixtures/Dev/088 - Speak Softly - Like Horses/remainingmix.wav'
p458
sg12
F312.66666700000002
sg13
I44100
sbg4
(g5
g6
NtRp459
(dp460
g9
I2
sg10
S'/home/ubuntu/AAS/data/DSD100/Sources/Dev/088 - Speak Softly - Like Horses/drums.wav'
p461
sg12
F312.66666700000002
sg13
I44100
sbtp462
a(g4
(g5
g6
NtRp463
(dp464
g9
I2
sg10
S'/home/ubuntu/AAS/data/DSD100/Mixtures/Dev/089 - St Vitus - Word Gets Around/mixture.wav'
p465
sg12
F247.20981900000001
sg13
I44100
sbg4
(g5
g6
NtRp466
(dp467
g9
I2
sg10
S'/home/ubuntu/AAS/data/DSD100/Mixtures/Dev/089 - St Vitus - Word Gets Around/remainingmix.wav'
p468
sg12
F247.20981900000001
sg13
I44100
sbg4
(g5
g6
NtRp469
(dp470
g9
I2
sg10
S'/home/ubuntu/AAS/data/DSD100/Sources/Dev/089 - St Vitus - Word Gets Around/drums.wav'
p471
sg12
F247.20981900000001
sg13
I44100
sbtp472
a(g4
(g5
g6
NtRp473
(dp474
g9
I2
sg10
S'/home/ubuntu/AAS/data/DSD100/Mixtures/Dev/090 - The Doppler Shift - Atrophy/mixture.wav'
p475
sg12
F331.44197300000002
sg13
I44100
sbg4
(g5
g6
NtRp476
(dp477
g9
I2
sg10
S'/home/ubuntu/AAS/data/DSD100/Mixtures/Dev/090 - The Doppler Shift - Atrophy/remainingmix.wav'
p478
sg12
F331.44197300000002
sg13
I44100
sbg4
(g5
g6
NtRp479
(dp480
g9
I2
sg10
S'/home/ubuntu/AAS/data/DSD100/Sources/Dev/090 - The Doppler Shift - Atrophy/drums.wav'
p481
sg12
F331.44197300000002
sg13
I44100
sbtp482
a(g4
(g5
g6
NtRp483
(dp484
g9
I2
sg10
S'/home/ubuntu/AAS/data/DSD100/Mixtures/Dev/091 - The Long Wait - Dark Horses/mixture.wav'
p485
sg12
F305.72093000000001
sg13
I44100
sbg4
(g5
g6
NtRp486
(dp487
g9
I2
sg10
S'/home/ubuntu/AAS/data/DSD100/Mixtures/Dev/091 - The Long Wait - Dark Horses/remainingmix.wav'
p488
sg12
F305.72093000000001
sg13
I44100
sbg4
(g5
g6
NtRp489
(dp490
g9
I2
sg10
S'/home/ubuntu/AAS/data/DSD100/Sources/Dev/091 - The Long Wait - Dark Horses/drums.wav'
p491
sg12
F305.72093000000001
sg13
I44100
sbtp492
a(g4
(g5
g6
NtRp493
(dp494
g9
I2
sg10
S'/home/ubuntu/AAS/data/DSD100/Mixtures/Dev/092 - The Sunshine Garcia Band - For I Am The Moon/mixture.wav'
p495
sg12
F320.29666700000001
sg13
I44100
sbg4
(g5
g6
NtRp496
(dp497
g9
I2
sg10
S'/home/ubuntu/AAS/data/DSD100/Mixtures/Dev/092 - The Sunshine Garcia Band - For I Am The Moon/remainingmix.wav'
p498
sg12
F320.29666700000001
sg13
I44100
sbg4
(g5
g6
NtRp499
(dp500
g9
I2
sg10
S'/home/ubuntu/AAS/data/DSD100/Sources/Dev/092 - The Sunshine Garcia Band - For I Am The Moon/drums.wav'
p501
sg12
F320.29666700000001
sg13
I44100
sbtp502
a(g4
(g5
g6
NtRp503
(dp504
g9
I2
sg10
S"/home/ubuntu/AAS/data/DSD100/Mixtures/Dev/076 - Little Chicago's Finest - My Own/mixture.wav"
p505
sg12
F281.61160999999998
sg13
I44100
sbg4
(g5
g6
NtRp506
(dp507
g9
I2
sg10
S"/home/ubuntu/AAS/data/DSD100/Mixtures/Dev/076 - Little Chicago's Finest - My Own/remainingmix.wav"
p508
sg12
F281.61160999999998
sg13
I44100
sbg4
(g5
g6
NtRp509
(dp510
g9
I2
sg10
S"/home/ubuntu/AAS/data/DSD100/Sources/Dev/076 - Little Chicago's Finest - My Own/drums.wav"
p511
sg12
F281.61160999999998
sg13
I44100
sbtp512
a(g4
(g5
g6
NtRp513
(dp514
g9
I2
sg10
S'/home/ubuntu/AAS/data/DSD100/Mixtures/Dev/077 - Lyndsey Ollard - Catching Up/mixture.wav'
p515
sg12
F227.42857100000001
sg13
I44100
sbg4
(g5
g6
NtRp516
(dp517
g9
I2
sg10
S'/home/ubuntu/AAS/data/DSD100/Mixtures/Dev/077 - Lyndsey Ollard - Catching Up/remainingmix.wav'
p518
sg12
F227.42857100000001
sg13
I44100
sbg4
(g5
g6
NtRp519
(dp520
g9
I2
sg10
S'/home/ubuntu/AAS/data/DSD100/Sources/Dev/077 - Lyndsey Ollard - Catching Up/drums.wav'
p521
sg12
F227.42857100000001
sg13
I44100
sbtp522
a(g4
(g5
g6
NtRp523
(dp524
g9
I2
sg10
S'/home/ubuntu/AAS/data/DSD100/Mixtures/Dev/078 - Moosmusic - Big Dummy Shake/mixture.wav'
p525
sg12
F198.85714300000001
sg13
I44100
sbg4
(g5
g6
NtRp526
(dp527
g9
I2
sg10
S'/home/ubuntu/AAS/data/DSD100/Mixtures/Dev/078 - Moosmusic - Big Dummy Shake/remainingmix.wav'
p528
sg12
F198.85714300000001
sg13
I44100
sbg4
(g5
g6
NtRp529
(dp530
g9
I2
sg10
S'/home/ubuntu/AAS/data/DSD100/Sources/Dev/078 - Moosmusic - Big Dummy Shake/drums.wav'
p531
sg12
F198.85714300000001
sg13
I44100
sbtp532
a(g4
(g5
g6
NtRp533
(dp534
g9
I2
sg10
S'/home/ubuntu/AAS/data/DSD100/Mixtures/Dev/079 - Mu - Too Bright/mixture.wav'
p535
sg12
F272.16516999999999
sg13
I44100
sbg4
(g5
g6
NtRp536
(dp537
g9
I2
sg10
S'/home/ubuntu/AAS/data/DSD100/Mixtures/Dev/079 - Mu - Too Bright/remainingmix.wav'
p538
sg12
F272.16516999999999
sg13
I44100
sbg4
(g5
g6
NtRp539
(dp540
g9
I2
sg10
S'/home/ubuntu/AAS/data/DSD100/Sources/Dev/079 - Mu - Too Bright/drums.wav'
p541
sg12
F272.16516999999999
sg13
I44100
sbtp542
a(g4
(g5
g6
NtRp543
(dp544
g9
I2
sg10
S'/home/ubuntu/AAS/data/DSD100/Mixtures/Dev/080 - North To Alaska - All The Same/mixture.wav'
p545
sg12
F248.14285699999999
sg13
I44100
sbg4
(g5
g6
NtRp546
(dp547
g9
I2
sg10
S'/home/ubuntu/AAS/data/DSD100/Mixtures/Dev/080 - North To Alaska - All The Same/remainingmix.wav'
p548
sg12
F248.14285699999999
sg13
I44100
sbg4
(g5
g6
NtRp549
(dp550
g9
I2
sg10
S'/home/ubuntu/AAS/data/DSD100/Sources/Dev/080 - North To Alaska - All The Same/drums.wav'
p551
sg12
F248.14285699999999
sg13
I44100
sbtp552
a(g4
(g5
g6
NtRp553
(dp554
g9
I2
sg10
S'/home/ubuntu/AAS/data/DSD100/Mixtures/Dev/081 - Patrick Talbot - Set Me Free/mixture.wav'
p555
sg12
F289.98213199999998
sg13
I44100
sbg4
(g5
g6
NtRp556
(dp557
g9
I2
sg10
S'/home/ubuntu/AAS/data/DSD100/Mixtures/Dev/081 - Patrick Talbot - Set Me Free/remainingmix.wav'
p558
sg12
F289.98213199999998
sg13
I44100
sbg4
(g5
g6
NtRp559
(dp560
g9
I2
sg10
S'/home/ubuntu/AAS/data/DSD100/Sources/Dev/081 - Patrick Talbot - Set Me Free/drums.wav'
p561
sg12
F289.98213199999998
sg13
I44100
sbtp562
a(g4
(g5
g6
NtRp563
(dp564
g9
I2
sg10
S'/home/ubuntu/AAS/data/DSD100/Mixtures/Dev/082 - Punkdisco - Oral Hygiene/mixture.wav'
p565
sg12
F221.598209
sg13
I44100
sbg4
(g5
g6
NtRp566
(dp567
g9
I2
sg10
S'/home/ubuntu/AAS/data/DSD100/Mixtures/Dev/082 - Punkdisco - Oral Hygiene/remainingmix.wav'
p568
sg12
F221.598209
sg13
I44100
sbg4
(g5
g6
NtRp569
(dp570
g9
I2
sg10
S'/home/ubuntu/AAS/data/DSD100/Sources/Dev/082 - Punkdisco - Oral Hygiene/drums.wav'
p571
sg12
F221.598209
sg13
I44100
sbtp572
a(g4
(g5
g6
NtRp573
(dp574
g9
I2
sg10
S'/home/ubuntu/AAS/data/DSD100/Mixtures/Dev/068 - Giselle - Moss/mixture.wav'
p575
sg12
F201.88838999999999
sg13
I44100
sbg4
(g5
g6
NtRp576
(dp577
g9
I2
sg10
S'/home/ubuntu/AAS/data/DSD100/Mixtures/Dev/068 - Giselle - Moss/remainingmix.wav'
p578
sg12
F201.88838999999999
sg13
I44100
sbg4
(g5
g6
NtRp579
(dp580
g9
I2
sg10
S'/home/ubuntu/AAS/data/DSD100/Sources/Dev/068 - Giselle - Moss/drums.wav'
p581
sg12
F201.88838999999999
sg13
I44100
sbtp582
a(g4
(g5
g6
NtRp583
(dp584
g9
I2
sg10
S'/home/ubuntu/AAS/data/DSD100/Mixtures/Dev/069 - Hollow Ground - Left Blind/mixture.wav'
p585
sg12
F159.29018099999999
sg13
I44100
sbg4
(g5
g6
NtRp586
(dp587
g9
I2
sg10
S'/home/ubuntu/AAS/data/DSD100/Mixtures/Dev/069 - Hollow Ground - Left Blind/remainingmix.wav'
p588
sg12
F159.29018099999999
sg13
I44100
sbg4
(g5
g6
NtRp589
(dp590
g9
I2
sg10
S'/home/ubuntu/AAS/data/DSD100/Sources/Dev/069 - Hollow Ground - Left Blind/drums.wav'
p591
sg12
F159.29018099999999
sg13
I44100
sbtp592
a(g4
(g5
g6
NtRp593
(dp594
g9
I2
sg10
S'/home/ubuntu/AAS/data/DSD100/Mixtures/Dev/070 - James May - All Souls Moon/mixture.wav'
p595
sg12
F221.04464899999999
sg13
I44100
sbg4
(g5
g6
NtRp596
(dp597
g9
I2
sg10
S'/home/ubuntu/AAS/data/DSD100/Mixtures/Dev/070 - James May - All Souls Moon/remainingmix.wav'
p598
sg12
F221.04464899999999
sg13
I44100
sbg4
(g5
g6
NtRp599
(dp600
g9
I2
sg10
S'/home/ubuntu/AAS/data/DSD100/Sources/Dev/070 - James May - All Souls Moon/drums.wav'
p601
sg12
F221.04464899999999
sg13
I44100
sbtp602
a(g4
(g5
g6
NtRp603
(dp604
g9
I2
sg10
S'/home/ubuntu/AAS/data/DSD100/Mixtures/Dev/071 - James May - If You Say/mixture.wav'
p605
sg12
F258.5
sg13
I44100
sbg4
(g5
g6
NtRp606
(dp607
g9
I2
sg10
S'/home/ubuntu/AAS/data/DSD100/Mixtures/Dev/071 - James May - If You Say/remainingmix.wav'
p608
sg12
F258.5
sg13
I44100
sbg4
(g5
g6
NtRp609
(dp610
g9
I2
sg10
S'/home/ubuntu/AAS/data/DSD100/Sources/Dev/071 - James May - If You Say/drums.wav'
p611
sg12
F258.5
sg13
I44100
sbtp612
a(g4
(g5
g6
NtRp613
(dp614
g9
I2
sg10
S'/home/ubuntu/AAS/data/DSD100/Mixtures/Dev/072 - Jay Menon - Through My Eyes/mixture.wav'
p615
sg12
F253.35714300000001
sg13
I44100
sbg4
(g5
g6
NtRp616
(dp617
g9
I2
sg10
S'/home/ubuntu/AAS/data/DSD100/Mixtures/Dev/072 - Jay Menon - Through My Eyes/remainingmix.wav'
p618
sg12
F253.35714300000001
sg13
I44100
sbg4
(g5
g6
NtRp619
(dp620
g9
I2
sg10
S'/home/ubuntu/AAS/data/DSD100/Sources/Dev/072 - Jay Menon - Through My Eyes/drums.wav'
p621
sg12
F253.35714300000001
sg13
I44100
sbtp622
a(g4
(g5
g6
NtRp623
(dp624
g9
I2
sg10
S'/home/ubuntu/AAS/data/DSD100/Mixtures/Dev/073 - Johnny Lokke - Whisper To A Scream/mixture.wav'
p625
sg12
F255.51786799999999
sg13
I44100
sbg4
(g5
g6
NtRp626
(dp627
g9
I2
sg10
S'/home/ubuntu/AAS/data/DSD100/Mixtures/Dev/073 - Johnny Lokke - Whisper To A Scream/remainingmix.wav'
p628
sg12
F255.51786799999999
sg13
I44100
sbg4
(g5
g6
NtRp629
(dp630
g9
I2
sg10
S'/home/ubuntu/AAS/data/DSD100/Sources/Dev/073 - Johnny Lokke - Whisper To A Scream/drums.wav'
p631
sg12
F255.51786799999999
sg13
I44100
sbtp632
a(g4
(g5
g6
NtRp633
(dp634
g9
I2
sg10
S"/home/ubuntu/AAS/data/DSD100/Mixtures/Dev/074 - Juliet's Rescue - Heartbeats/mixture.wav"
p635
sg12
F267.651791
sg13
I44100
sbg4
(g5
g6
NtRp636
(dp637
g9
I2
sg10
S"/home/ubuntu/AAS/data/DSD100/Mixtures/Dev/074 - Juliet's Rescue - Heartbeats/remainingmix.wav"
p638
sg12
F267.651791
sg13
I44100
sbg4
(g5
g6
NtRp639
(dp640
g9
I2
sg10
S"/home/ubuntu/AAS/data/DSD100/Sources/Dev/074 - Juliet's Rescue - Heartbeats/drums.wav"
p641
sg12
F267.651791
sg13
I44100
sbtp642
a(g4
(g5
g6
NtRp643
(dp644
g9
I2
sg10
S'/home/ubuntu/AAS/data/DSD100/Mixtures/Dev/059 - Black Bloc - If You Want Success/mixture.wav'
p645
sg12
F398.73215399999998
sg13
I44100
sbg4
(g5
g6
NtRp646
(dp647
g9
I2
sg10
S'/home/ubuntu/AAS/data/DSD100/Mixtures/Dev/059 - Black Bloc - If You Want Success/remainingmix.wav'
p648
sg12
F398.73215399999998
sg13
I44100
sbg4
(g5
g6
NtRp649
(dp650
g9
I2
sg10
S'/home/ubuntu/AAS/data/DSD100/Sources/Dev/059 - Black Bloc - If You Want Success/drums.wav'
p651
sg12
F398.73215399999998
sg13
I44100
sbtp652
a(g4
(g5
g6
NtRp653
(dp654
g9
I2
sg10
S'/home/ubuntu/AAS/data/DSD100/Mixtures/Dev/067 - Georgia Wonder - Siren/mixture.wav'
p655
sg12
F430.37501099999997
sg13
I44100
sbg4
(g5
g6
NtRp656
(dp657
g9
I2
sg10
S'/home/ubuntu/AAS/data/DSD100/Mixtures/Dev/067 - Georgia Wonder - Siren/remainingmix.wav'
p658
sg12
F430.37501099999997
sg13
I44100
sbg4
(g5
g6
NtRp659
(dp660
g9
I2
sg10
S'/home/ubuntu/AAS/data/DSD100/Sources/Dev/067 - Georgia Wonder - Siren/drums.wav'
p661
sg12
F430.37501099999997
sg13
I44100
sbtp662
a(g4
(g5
g6
NtRp663
(dp664
g9
I2
sg10
S'/home/ubuntu/AAS/data/DSD100/Mixtures/Dev/075 - Leaf - Summerghost/mixture.wav'
p665
sg12
F232
sg13
I44100
sbg4
(g5
g6
NtRp666
(dp667
g9
I2
sg10
S'/home/ubuntu/AAS/data/DSD100/Mixtures/Dev/075 - Leaf - Summerghost/remainingmix.wav'
p668
sg12
F232
sg13
I44100
sbg4
(g5
g6
NtRp669
(dp670
g9
I2
sg10
S'/home/ubuntu/AAS/data/DSD100/Sources/Dev/075 - Leaf - Summerghost/drums.wav'
p671
sg12
F232
sg13
I44100
sbtp672
a(g4
(g5
g6
NtRp673
(dp674
g9
I2
sg10
S'/home/ubuntu/AAS/data/DSD100/Mixtures/Dev/083 - Remember December - C U Next Time/mixture.wav'
p675
sg12
F242.713469
sg13
I44100
sbg4
(g5
g6
NtRp676
(dp677
g9
I2
sg10
S'/home/ubuntu/AAS/data/DSD100/Mixtures/Dev/083 - Remember December - C U Next Time/remainingmix.wav'
p678
sg12
F242.713469
sg13
I44100
sbg4
(g5
g6
NtRp679
(dp680
g9
I2
sg10
S'/home/ubuntu/AAS/data/DSD100/Sources/Dev/083 - Remember December - C U Next Time/drums.wav'
p681
sg12
F242.713469
sg13
I44100
sbtp682
a(g4
(g5
g6
NtRp683
(dp684
g9
I2
sg10
S'/home/ubuntu/AAS/data/DSD100/Mixtures/Dev/093 - Tim Taler - Stalker/mixture.wav'
p685
sg12
F237.818186
sg13
I44100
sbg4
(g5
g6
NtRp686
(dp687
g9
I2
sg10
S'/home/ubuntu/AAS/data/DSD100/Mixtures/Dev/093 - Tim Taler - Stalker/remainingmix.wav'
p688
sg12
F237.818186
sg13
I44100
sbg4
(g5
g6
NtRp689
(dp690
g9
I2
sg10
S'/home/ubuntu/AAS/data/DSD100/Sources/Dev/093 - Tim Taler - Stalker/drums.wav'
p691
sg12
F237.818186
sg13
I44100
sbtp692
a(g4
(g5
g6
NtRp693
(dp694
g9
I2
sg10
S'/home/ubuntu/AAS/data/DSD100/Mixtures/Dev/060 - Buitraker - Revo X/mixture.wav'
p695
sg12
F275.825896
sg13
I44100
sbg4
(g5
g6
NtRp696
(dp697
g9
I2
sg10
S'/home/ubuntu/AAS/data/DSD100/Mixtures/Dev/060 - Buitraker - Revo X/remainingmix.wav'
p698
sg12
F275.825896
sg13
I44100
sbg4
(g5
g6
NtRp699
(dp700
g9
I2
sg10
S'/home/ubuntu/AAS/data/DSD100/Sources/Dev/060 - Buitraker - Revo X/drums.wav'
p701
sg12
F275.825896
sg13
I44100
sbtp702
a(g4
(g5
g6
NtRp703
(dp704
g9
I2
sg10
S'/home/ubuntu/AAS/data/DSD100/Mixtures/Dev/061 - Chris Durban - Celebrate/mixture.wav'
p705
sg12
F301.78571399999998
sg13
I44100
sbg4
(g5
g6
NtRp706
(dp707
g9
I2
sg10
S'/home/ubuntu/AAS/data/DSD100/Mixtures/Dev/061 - Chris Durban - Celebrate/remainingmix.wav'
p708
sg12
F301.78571399999998
sg13
I44100
sbg4
(g5
g6
NtRp709
(dp710
g9
I2
sg10
S'/home/ubuntu/AAS/data/DSD100/Sources/Dev/061 - Chris Durban - Celebrate/drums.wav'
p711
sg12
F301.78571399999998
sg13
I44100
sbtp712
a(g4
(g5
g6
NtRp713
(dp714
g9
I2
sg10
S'/home/ubuntu/AAS/data/DSD100/Mixtures/Dev/062 - Cristina Vane - So Easy/mixture.wav'
p715
sg12
F254.13392300000001
sg13
I44100
sbg4
(g5
g6
NtRp716
(dp717
g9
I2
sg10
S'/home/ubuntu/AAS/data/DSD100/Mixtures/Dev/062 - Cristina Vane - So Easy/remainingmix.wav'
p718
sg12
F254.13392300000001
sg13
I44100
sbg4
(g5
g6
NtRp719
(dp720
g9
I2
sg10
S'/home/ubuntu/AAS/data/DSD100/Sources/Dev/062 - Cristina Vane - So Easy/drums.wav'
p721
sg12
F254.13392300000001
sg13
I44100
sbtp722
a(g4
(g5
g6
NtRp723
(dp724
g9
I2
sg10
S'/home/ubuntu/AAS/data/DSD100/Mixtures/Dev/063 - Detsky Sad - Walkie Talkie/mixture.wav'
p725
sg12
F190.48213200000001
sg13
I44100
sbg4
(g5
g6
NtRp726
(dp727
g9
I2
sg10
S'/home/ubuntu/AAS/data/DSD100/Mixtures/Dev/063 - Detsky Sad - Walkie Talkie/remainingmix.wav'
p728
sg12
F190.48213200000001
sg13
I44100
sbg4
(g5
g6
NtRp729
(dp730
g9
I2
sg10
S'/home/ubuntu/AAS/data/DSD100/Sources/Dev/063 - Detsky Sad - Walkie Talkie/drums.wav'
p731
sg12
F190.48213200000001
sg13
I44100
sbtp732
a(g4
(g5
g6
NtRp733
(dp734
g9
I2
sg10
S'/home/ubuntu/AAS/data/DSD100/Mixtures/Dev/064 - Enda Reilly - Cur An Long Ag Seol/mixture.wav'
p735
sg12
F186.99553299999999
sg13
I44100
sbg4
(g5
g6
NtRp736
(dp737
g9
I2
sg10
S'/home/ubuntu/AAS/data/DSD100/Mixtures/Dev/064 - Enda Reilly - Cur An Long Ag Seol/remainingmix.wav'
p738
sg12
F186.99553299999999
sg13
I44100
sbg4
(g5
g6
NtRp739
(dp740
g9
I2
sg10
S'/home/ubuntu/AAS/data/DSD100/Sources/Dev/064 - Enda Reilly - Cur An Long Ag Seol/drums.wav'
p741
sg12
F186.99553299999999
sg13
I44100
sbtp742
a(g4
(g5
g6
NtRp743
(dp744
g9
I2
sg10
S'/home/ubuntu/AAS/data/DSD100/Mixtures/Dev/065 - Fergessen - Nos Palpitants/mixture.wav'
p745
sg12
F198.41070300000001
sg13
I44100
sbg4
(g5
g6
NtRp746
(dp747
g9
I2
sg10
S'/home/ubuntu/AAS/data/DSD100/Mixtures/Dev/065 - Fergessen - Nos Palpitants/remainingmix.wav'
p748
sg12
F198.41070300000001
sg13
I44100
sbg4
(g5
g6
NtRp749
(dp750
g9
I2
sg10
S'/home/ubuntu/AAS/data/DSD100/Sources/Dev/065 - Fergessen - Nos Palpitants/drums.wav'
p751
sg12
F198.41070300000001
sg13
I44100
sbtp752
a(g4
(g5
g6
NtRp753
(dp754
g9
I2
sg10
S'/home/ubuntu/AAS/data/DSD100/Mixtures/Dev/066 - Flags - 54/mixture.wav'
p755
sg12
F315.34374100000002
sg13
I44100
sbg4
(g5
g6
NtRp756
(dp757
g9
I2
sg10
S'/home/ubuntu/AAS/data/DSD100/Mixtures/Dev/066 - Flags - 54/remainingmix.wav'
p758
sg12
F315.34374100000002
sg13
I44100
sbg4
(g5
g6
NtRp759
(dp760
g9
I2
sg10
S'/home/ubuntu/AAS/data/DSD100/Sources/Dev/066 - Flags - 54/drums.wav'
p761
sg12
F315.34374100000002
sg13
I44100
sbtp762
asS'valid'
p763
(lp764
(g4
(g5
g6
NtRp765
(dp766
g9
I2
sg10
S'/home/ubuntu/AAS/data/DSD100/Mixtures/Test/001 - ANiMAL - Clinic A/mixture.wav'
p767
sg12
F238.049116
sg13
I44100
sbg4
(g5
g6
NtRp768
(dp769
g9
I2
sg10
S'/home/ubuntu/AAS/data/DSD100/Mixtures/Test/001 - ANiMAL - Clinic A/remainingmix.wav'
p770
sg12
F238.049116
sg13
I44100
sbg4
(g5
g6
NtRp771
(dp772
g9
I2
sg10
S'/home/ubuntu/AAS/data/DSD100/Sources/Test/001 - ANiMAL - Clinic A/drums.wav'
p773
sg12
F238.049116
sg13
I44100
sbtp774
a(g4
(g5
g6
NtRp775
(dp776
g9
I2
sg10
S'/home/ubuntu/AAS/data/DSD100/Mixtures/Test/002 - ANiMAL - Rockshow/mixture.wav'
p777
sg12
F165.696417
sg13
I44100
sbg4
(g5
g6
NtRp778
(dp779
g9
I2
sg10
S'/home/ubuntu/AAS/data/DSD100/Mixtures/Test/002 - ANiMAL - Rockshow/remainingmix.wav'
p780
sg12
F165.696417
sg13
I44100
sbg4
(g5
g6
NtRp781
(dp782
g9
I2
sg10
S'/home/ubuntu/AAS/data/DSD100/Sources/Test/002 - ANiMAL - Rockshow/drums.wav'
p783
sg12
F165.696417
sg13
I44100
sbtp784
a(g4
(g5
g6
NtRp785
(dp786
g9
I2
sg10
S'/home/ubuntu/AAS/data/DSD100/Mixtures/Test/003 - Actions - One Minute Smile/mixture.wav'
p787
sg12
F163.57210900000001
sg13
I44100
sbg4
(g5
g6
NtRp788
(dp789
g9
I2
sg10
S'/home/ubuntu/AAS/data/DSD100/Mixtures/Test/003 - Actions - One Minute Smile/remainingmix.wav'
p790
sg12
F163.57210900000001
sg13
I44100
sbg4
(g5
g6
NtRp791
(dp792
g9
I2
sg10
S'/home/ubuntu/AAS/data/DSD100/Sources/Test/003 - Actions - One Minute Smile/drums.wav'
p793
sg12
F163.57210900000001
sg13
I44100
sbtp794
a(g4
(g5
g6
NtRp795
(dp796
g9
I2
sg10
S'/home/ubuntu/AAS/data/DSD100/Mixtures/Test/004 - Al James - Schoolboy Facination/mixture.wav'
p797
sg12
F200.52678
sg13
I44100
sbg4
(g5
g6
NtRp798
(dp799
g9
I2
sg10
S'/home/ubuntu/AAS/data/DSD100/Mixtures/Test/004 - Al James - Schoolboy Facination/remainingmix.wav'
p800
sg12
F200.52678
sg13
I44100
sbg4
(g5
g6
NtRp801
(dp802
g9
I2
sg10
S'/home/ubuntu/AAS/data/DSD100/Sources/Test/004 - Al James - Schoolboy Facination/drums.wav'
p803
sg12
F200.52678
sg13
I44100
sbtp804
a(g4
(g5
g6
NtRp805
(dp806
g9
I2
sg10
S'/home/ubuntu/AAS/data/DSD100/Mixtures/Test/005 - Angela Thomas Wade - Milk Cow Blues/mixture.wav'
p807
sg12
F211.08929699999999
sg13
I44100
sbg4
(g5
g6
NtRp808
(dp809
g9
I2
sg10
S'/home/ubuntu/AAS/data/DSD100/Mixtures/Test/005 - Angela Thomas Wade - Milk Cow Blues/remainingmix.wav'
p810
sg12
F211.08929699999999
sg13
I44100
sbg4
(g5
g6
NtRp811
(dp812
g9
I2
sg10
S'/home/ubuntu/AAS/data/DSD100/Sources/Test/005 - Angela Thomas Wade - Milk Cow Blues/drums.wav'
p813
sg12
F211.08929699999999
sg13
I44100
sbtp814
a(g4
(g5
g6
NtRp815
(dp816
g9
I2
sg10
S'/home/ubuntu/AAS/data/DSD100/Mixtures/Test/006 - Atlantis Bound - It Was My Fault For Waiting/mixture.wav'
p817
sg12
F268.23659900000001
sg13
I44100
sbg4
(g5
g6
NtRp818
(dp819
g9
I2
sg10
S'/home/ubuntu/AAS/data/DSD100/Mixtures/Test/006 - Atlantis Bound - It Was My Fault For Waiting/remainingmix.wav'
p820
sg12
F268.23659900000001
sg13
I44100
sbg4
(g5
g6
NtRp821
(dp822
g9
I2
sg10
S'/home/ubuntu/AAS/data/DSD100/Sources/Test/006 - Atlantis Bound - It Was My Fault For Waiting/drums.wav'
p823
sg12
F268.23659900000001
sg13
I44100
sbtp824
a(g4
(g5
g6
NtRp825
(dp826
g9
I2
sg10
S'/home/ubuntu/AAS/data/DSD100/Mixtures/Test/007 - BKS - Too Much/mixture.wav'
p827
sg12
F220.124989
sg13
I44100
sbg4
(g5
g6
NtRp828
(dp829
g9
I2
sg10
S'/home/ubuntu/AAS/data/DSD100/Mixtures/Test/007 - BKS - Too Much/remainingmix.wav'
p830
sg12
F220.124989
sg13
I44100
sbg4
(g5
g6
NtRp831
(dp832
g9
I2
sg10
S'/home/ubuntu/AAS/data/DSD100/Sources/Test/007 - BKS - Too Much/drums.wav'
p833
sg12
F220.124989
sg13
I44100
sbtp834
a(g4
(g5
g6
NtRp835
(dp836
g9
I2
sg10
S'/home/ubuntu/AAS/data/DSD100/Mixtures/Test/008 - Bill Chudziak - Children Of No-one/mixture.wav'
p837
sg12
F230.93303900000001
sg13
I44100
sbg4
(g5
g6
NtRp838
(dp839
g9
I2
sg10
S'/home/ubuntu/AAS/data/DSD100/Mixtures/Test/008 - Bill Chudziak - Children Of No-one/remainingmix.wav'
p840
sg12
F230.93303900000001
sg13
I44100
sbg4
(g5
g6
NtRp841
(dp842
g9
I2
sg10
S'/home/ubuntu/AAS/data/DSD100/Sources/Test/008 - Bill Chudziak - Children Of No-one/drums.wav'
p843
sg12
F230.93303900000001
sg13
I44100
sbtp844
a(g4
(g5
g6
NtRp845
(dp846
g9
I2
sg10
S'/home/ubuntu/AAS/data/DSD100/Mixtures/Test/009 - Bobby Nobody - Stitch Up/mixture.wav'
p847
sg12
F221.25
sg13
I44100
sbg4
(g5
g6
NtRp848
(dp849
g9
I2
sg10
S'/home/ubuntu/AAS/data/DSD100/Mixtures/Test/009 - Bobby Nobody - Stitch Up/remainingmix.wav'
p850
sg12
F221.25
sg13
I44100
sbg4
(g5
g6
NtRp851
(dp852
g9
I2
sg10
S'/home/ubuntu/AAS/data/DSD100/Sources/Test/009 - Bobby Nobody - Stitch Up/drums.wav'
p853
sg12
F221.25
sg13
I44100
sbtp854
a(g4
(g5
g6
NtRp855
(dp856
g9
I2
sg10
S'/home/ubuntu/AAS/data/DSD100/Mixtures/Test/010 - Carlos Gonzalez - A Place For Us/mixture.wav'
p857
sg12
F250.21875299999999
sg13
I44100
sbg4
(g5
g6
NtRp858
(dp859
g9
I2
sg10
S'/home/ubuntu/AAS/data/DSD100/Mixtures/Test/010 - Carlos Gonzalez - A Place For Us/remainingmix.wav'
p860
sg12
F250.21875299999999
sg13
I44100
sbg4
(g5
g6
NtRp861
(dp862
g9
I2
sg10
S'/home/ubuntu/AAS/data/DSD100/Sources/Test/010 - Carlos Gonzalez - A Place For Us/drums.wav'
p863
sg12
F250.21875299999999
sg13
I44100
sbtp864
a(g4
(g5
g6
NtRp865
(dp866
g9
I2
sg10
S'/home/ubuntu/AAS/data/DSD100/Mixtures/Test/011 - Cnoc An Tursa - Bannockburn/mixture.wav'
p867
sg12
F294.70088399999997
sg13
I44100
sbg4
(g5
g6
NtRp868
(dp869
g9
I2
sg10
S'/home/ubuntu/AAS/data/DSD100/Mixtures/Test/011 - Cnoc An Tursa - Bannockburn/remainingmix.wav'
p870
sg12
F294.70088399999997
sg13
I44100
sbg4
(g5
g6
NtRp871
(dp872
g9
I2
sg10
S'/home/ubuntu/AAS/data/DSD100/Sources/Test/011 - Cnoc An Tursa - Bannockburn/drums.wav'
p873
sg12
F294.70088399999997
sg13
I44100
sbtp874
a(g4
(g5
g6
NtRp875
(dp876
g9
I2
sg10
S'/home/ubuntu/AAS/data/DSD100/Mixtures/Test/012 - Dark Ride - Burning Bridges/mixture.wav'
p877
sg12
F232.848209
sg13
I44100
sbg4
(g5
g6
NtRp878
(dp879
g9
I2
sg10
S'/home/ubuntu/AAS/data/DSD100/Mixtures/Test/012 - Dark Ride - Burning Bridges/remainingmix.wav'
p880
sg12
F232.848209
sg13
I44100
sbg4
(g5
g6
NtRp881
(dp882
g9
I2
sg10
S'/home/ubuntu/AAS/data/DSD100/Sources/Test/012 - Dark Ride - Burning Bridges/drums.wav'
p883
sg12
F232.848209
sg13
I44100
sbtp884
a(g4
(g5
g6
NtRp885
(dp886
g9
I2
sg10
S'/home/ubuntu/AAS/data/DSD100/Mixtures/Test/040 - The Long Wait - Back Home To Blue/mixture.wav'
p887
sg12
F260.64800500000001
sg13
I44100
sbg4
(g5
g6
NtRp888
(dp889
g9
I2
sg10
S'/home/ubuntu/AAS/data/DSD100/Mixtures/Test/040 - The Long Wait - Back Home To Blue/remainingmix.wav'
p890
sg12
F260.64800500000001
sg13
I44100
sbg4
(g5
g6
NtRp891
(dp892
g9
I2
sg10
S'/home/ubuntu/AAS/data/DSD100/Sources/Test/040 - The Long Wait - Back Home To Blue/drums.wav'
p893
sg12
F260.64800500000001
sg13
I44100
sbtp894
a(g4
(g5
g6
NtRp895
(dp896
g9
I2
sg10
S'/home/ubuntu/AAS/data/DSD100/Mixtures/Test/041 - The Mountaineering Club - Mallory/mixture.wav'
p897
sg12
F244.45981900000001
sg13
I44100
sbg4
(g5
g6
NtRp898
(dp899
g9
I2
sg10
S'/home/ubuntu/AAS/data/DSD100/Mixtures/Test/041 - The Mountaineering Club - Mallory/remainingmix.wav'
p900
sg12
F244.45981900000001
sg13
I44100
sbg4
(g5
g6
NtRp901
(dp902
g9
I2
sg10
S'/home/ubuntu/AAS/data/DSD100/Sources/Test/041 - The Mountaineering Club - Mallory/drums.wav'
p903
sg12
F244.45981900000001
sg13
I44100
sbtp904
a(g4
(g5
g6
NtRp905
(dp906
g9
I2
sg10
S"/home/ubuntu/AAS/data/DSD100/Mixtures/Test/042 - The Wrong'Uns - Rothko/mixture.wav"
p907
sg12
F202.33927399999999
sg13
I44100
sbg4
(g5
g6
NtRp908
(dp909
g9
I2
sg10
S"/home/ubuntu/AAS/data/DSD100/Mixtures/Test/042 - The Wrong'Uns - Rothko/remainingmix.wav"
p910
sg12
F202.33927399999999
sg13
I44100
sbg4
(g5
g6
NtRp911
(dp912
g9
I2
sg10
S"/home/ubuntu/AAS/data/DSD100/Sources/Test/042 - The Wrong'Uns - Rothko/drums.wav"
p913
sg12
F202.33927399999999
sg13
I44100
sbtp914
a(g4
(g5
g6
NtRp915
(dp916
g9
I2
sg10
S'/home/ubuntu/AAS/data/DSD100/Mixtures/Test/043 - Timboz - Pony/mixture.wav'
p917
sg12
F253.04873000000001
sg13
I44100
sbg4
(g5
g6
NtRp918
(dp919
g9
I2
sg10
S'/home/ubuntu/AAS/data/DSD100/Mixtures/Test/043 - Timboz - Pony/remainingmix.wav'
p920
sg12
F253.04873000000001
sg13
I44100
sbg4
(g5
g6
NtRp921
(dp922
g9
I2
sg10
S'/home/ubuntu/AAS/data/DSD100/Sources/Test/043 - Timboz - Pony/drums.wav'
p923
sg12
F253.04873000000001
sg13
I44100
sbtp924
a(g4
(g5
g6
NtRp925
(dp926
g9
I2
sg10
S'/home/ubuntu/AAS/data/DSD100/Mixtures/Test/044 - Tom McKenzie - Directions/mixture.wav'
p927
sg12
F175.852676
sg13
I44100
sbg4
(g5
g6
NtRp928
(dp929
g9
I2
sg10
S'/home/ubuntu/AAS/data/DSD100/Mixtures/Test/044 - Tom McKenzie - Directions/remainingmix.wav'
p930
sg12
F175.852676
sg13
I44100
sbg4
(g5
g6
NtRp931
(dp932
g9
I2
sg10
S'/home/ubuntu/AAS/data/DSD100/Sources/Test/044 - Tom McKenzie - Directions/drums.wav'
p933
sg12
F175.852676
sg13
I44100
sbtp934
a(g4
(g5
g6
NtRp935
(dp936
g9
I2
sg10
S'/home/ubuntu/AAS/data/DSD100/Mixtures/Test/045 - Traffic Experiment - Sirens/mixture.wav'
p937
sg12
F421.45943299999999
sg13
I44100
sbg4
(g5
g6
NtRp938
(dp939
g9
I2
sg10
S'/home/ubuntu/AAS/data/DSD100/Mixtures/Test/045 - Traffic Experiment - Sirens/remainingmix.wav'
p940
sg12
F421.45943299999999
sg13
I44100
sbg4
(g5
g6
NtRp941
(dp942
g9
I2
sg10
S'/home/ubuntu/AAS/data/DSD100/Sources/Test/045 - Traffic Experiment - Sirens/drums.wav'
p943
sg12
F421.45943299999999
sg13
I44100
sbtp944
a(g4
(g5
g6
NtRp945
(dp946
g9
I2
sg10
S'/home/ubuntu/AAS/data/DSD100/Mixtures/Test/046 - Triviul - Dorothy/mixture.wav'
p947
sg12
F187.55786800000001
sg13
I44100
sbg4
(g5
g6
NtRp948
(dp949
g9
I2
sg10
S'/home/ubuntu/AAS/data/DSD100/Mixtures/Test/046 - Triviul - Dorothy/remainingmix.wav'
p950
sg12
F187.55786800000001
sg13
I44100
sbg4
(g5
g6
NtRp951
(dp952
g9
I2
sg10
S'/home/ubuntu/AAS/data/DSD100/Sources/Test/046 - Triviul - Dorothy/drums.wav'
p953
sg12
F187.55786800000001
sg13
I44100
sbtp954
a(g4
(g5
g6
NtRp955
(dp956
g9
I2
sg10
S'/home/ubuntu/AAS/data/DSD100/Mixtures/Test/047 - Voelund - Comfort Lives In Belief/mixture.wav'
p957
sg12
F210.09523799999999
sg13
I44100
sbg4
(g5
g6
NtRp958
(dp959
g9
I2
sg10
S'/home/ubuntu/AAS/data/DSD100/Mixtures/Test/047 - Voelund - Comfort Lives In Belief/remainingmix.wav'
p960
sg12
F210.09523799999999
sg13
I44100
sbg4
(g5
g6
NtRp961
(dp962
g9
I2
sg10
S'/home/ubuntu/AAS/data/DSD100/Sources/Test/047 - Voelund - Comfort Lives In Belief/drums.wav'
p963
sg12
F210.09523799999999
sg13
I44100
sbtp964
a(g4
(g5
g6
NtRp965
(dp966
g9
I2
sg10
S'/home/ubuntu/AAS/data/DSD100/Mixtures/Test/048 - We Fell From The Sky - Not You/mixture.wav'
p967
sg12
F207.897324
sg13
I44100
sbg4
(g5
g6
NtRp968
(dp969
g9
I2
sg10
S'/home/ubuntu/AAS/data/DSD100/Mixtures/Test/048 - We Fell From The Sky - Not You/remainingmix.wav'
p970
sg12
F207.897324
sg13
I44100
sbg4
(g5
g6
NtRp971
(dp972
g9
I2
sg10
S'/home/ubuntu/AAS/data/DSD100/Sources/Test/048 - We Fell From The Sky - Not You/drums.wav'
p973
sg12
F207.897324
sg13
I44100
sbtp974
a(g4
(g5
g6
NtRp975
(dp976
g9
I2
sg10
S'/home/ubuntu/AAS/data/DSD100/Mixtures/Test/049 - Young Griffo - Facade/mixture.wav'
p977
sg12
F168.05356
sg13
I44100
sbg4
(g5
g6
NtRp978
(dp979
g9
I2
sg10
S'/home/ubuntu/AAS/data/DSD100/Mixtures/Test/049 - Young Griffo - Facade/remainingmix.wav'
p980
sg12
F168.05356
sg13
I44100
sbg4
(g5
g6
NtRp981
(dp982
g9
I2
sg10
S'/home/ubuntu/AAS/data/DSD100/Sources/Test/049 - Young Griffo - Facade/drums.wav'
p983
sg12
F168.05356
sg13
I44100
sbtp984
a(g4
(g5
g6
NtRp985
(dp986
g9
I2
sg10
S'/home/ubuntu/AAS/data/DSD100/Mixtures/Test/050 - Zeno - Signs/mixture.wav'
p987
sg12
F234.38392300000001
sg13
I44100
sbg4
(g5
g6
NtRp988
(dp989
g9
I2
sg10
S'/home/ubuntu/AAS/data/DSD100/Mixtures/Test/050 - Zeno - Signs/remainingmix.wav'
p990
sg12
F234.38392300000001
sg13
I44100
sbg4
(g5
g6
NtRp991
(dp992
g9
I2
sg10
S'/home/ubuntu/AAS/data/DSD100/Sources/Test/050 - Zeno - Signs/drums.wav'
p993
sg12
F234.38392300000001
sg13
I44100
sbtp994
a(g4
(g5
g6
NtRp995
(dp996
g9
I2
sg10
S"/home/ubuntu/AAS/data/DSD100/Mixtures/Test/031 - Phre The Eon - Everybody's Falling Apart/mixture.wav"
p997
sg12
F224.41963699999999
sg13
I44100
sbg4
(g5
g6
NtRp998
(dp999
g9
I2
sg10
S"/home/ubuntu/AAS/data/DSD100/Mixtures/Test/031 - Phre The Eon - Everybody's Falling Apart/remainingmix.wav"
p1000
sg12
F224.41963699999999
sg13
I44100
sbg4
(g5
g6
NtRp1001
(dp1002
g9
I2
sg10
S"/home/ubuntu/AAS/data/DSD100/Sources/Test/031 - Phre The Eon - Everybody's Falling Apart/drums.wav"
p1003
sg12
F224.41963699999999
sg13
I44100
sbtp1004
a(g4
(g5
g6
NtRp1005
(dp1006
g9
I2
sg10
S'/home/ubuntu/AAS/data/DSD100/Mixtures/Test/032 - Raft Monk - Tiring/mixture.wav'
p1007
sg12
F212.24553299999999
sg13
I44100
sbg4
(g5
g6
NtRp1008
(dp1009
g9
I2
sg10
S'/home/ubuntu/AAS/data/DSD100/Mixtures/Test/032 - Raft Monk - Tiring/remainingmix.wav'
p1010
sg12
F212.24553299999999
sg13
I44100
sbg4
(g5
g6
NtRp1011
(dp1012
g9
I2
sg10
S'/home/ubuntu/AAS/data/DSD100/Sources/Test/032 - Raft Monk - Tiring/drums.wav'
p1013
sg12
F212.24553299999999
sg13
I44100
sbtp1014
asS'train_unsup'
p1015
(lp1016
(lp1017
g4
(g5
g6
NtRp1018
(dp1019
g9
I2
sg10
S'/home/ubuntu/AAS/data/unsup/mix/1.mp3'
p1020
sg12
F362
sg13
I44100
sbag4
(g5
g6
NtRp1021
(dp1022
g9
I2
sg10
S'/home/ubuntu/AAS/data/unsup/mix/2.mp3'
p1023
sg12
F570
sg13
I44100
sbag4
(g5
g6
NtRp1024
(dp1025
g9
I2
sg10
S'/home/ubuntu/AAS/data/unsup/mix/3.mp3'
p1026
sg12
F577
sg13
I44100
sbag4
(g5
g6
NtRp1027
(dp1028
g9
I2
sg10
S'/home/ubuntu/AAS/data/unsup/mix/4.mp3'
p1029
sg12
F545
sg13
I44100
sbag4
(g5
g6
NtRp1030
(dp1031
g9
I2
sg10
S'/home/ubuntu/AAS/data/unsup/mix/5.mp3'
p1032
sg12
F515
sg13
I44100
sbag4
(g5
g6
NtRp1033
(dp1034
g9
I2
sg10
S'/home/ubuntu/AAS/data/unsup/mix/6.mp3'
p1035
sg12
F437
sg13
I44100
sbag4
(g5
g6
NtRp1036
(dp1037
g9
I2
sg10
S'/home/ubuntu/AAS/data/unsup/mix/7.mp3'
p1038
sg12
F436
sg13
I44100
sbag4
(g5
g6
NtRp1039
(dp1040
g9
I2
sg10
S'/home/ubuntu/AAS/data/unsup/mix/8.mp3'
p1041
sg12
F498
sg13
I44100
sbag4
(g5
g6
NtRp1042
(dp1043
g9
I2
sg10
S'/home/ubuntu/AAS/data/unsup/mix/9.mp3'
p1044
sg12
F496
sg13
I44100
sbag4
(g5
g6
NtRp1045
(dp1046
g9
I2
sg10
S'/home/ubuntu/AAS/data/unsup/mix/10.mp3'
p1047
sg12
F478
sg13
I44100
sbag4
(g5
g6
NtRp1048
(dp1049
g9
I2
sg10
S'/home/ubuntu/AAS/data/unsup/mix/11.mp3'
p1050
sg12
F439
sg13
I44100
sbag4
(g5
g6
NtRp1051
(dp1052
g9
I2
sg10
S'/home/ubuntu/AAS/data/unsup/mix/12.mp3'
p1053
sg12
F417
sg13
I44100
sbag4
(g5
g6
NtRp1054
(dp1055
g9
I2
sg10
S'/home/ubuntu/AAS/data/unsup/mix/13.mp3'
p1056
sg12
F400
sg13
I44100
sbag4
(g5
g6
NtRp1057
(dp1058
g9
I2
sg10
S'/home/ubuntu/AAS/data/unsup/mix/14.mp3'
p1059
sg12
F393
sg13
I44100
sbag4
(g5
g6
NtRp1060
(dp1061
g9
I2
sg10
S'/home/ubuntu/AAS/data/unsup/mix/15.mp3'
p1062
sg12
F409
sg13
I44100
sbag4
(g5
g6
NtRp1063
(dp1064
g9
I2
sg10
S'/home/ubuntu/AAS/data/unsup/mix/16.mp3'
p1065
sg12
F358
sg13
I44100
sbag4
(g5
g6
NtRp1066
(dp1067
g9
I2
sg10
S'/home/ubuntu/AAS/data/unsup/mix/17.mp3'
p1068
sg12
F326
sg13
I44100
sbag4
(g5
g6
NtRp1069
(dp1070
g9
I2
sg10
S'/home/ubuntu/AAS/data/unsup/mix/18.mp3'
p1071
sg12
F339
sg13
I44100
sbag4
(g5
g6
NtRp1072
(dp1073
g9
I2
sg10
S'/home/ubuntu/AAS/data/unsup/mix/19.mp3'
p1074
sg12
F344
sg13
I44100
sbag4
(g5
g6
NtRp1075
(dp1076
g9
I2
sg10
S'/home/ubuntu/AAS/data/unsup/mix/20.mp3'
p1077
sg12
F342
sg13
I44100
sbag4
(g5
g6
NtRp1078
(dp1079
g9
I2
sg10
S'/home/ubuntu/AAS/data/unsup/mix/21.mp3'
p1080
sg12
F343
sg13
I44100
sbag4
(g5
g6
NtRp1081
(dp1082
g9
I2
sg10
S'/home/ubuntu/AAS/data/unsup/mix/22.mp3'
p1083
sg12
F320
sg13
I44100
sbag4
(g5
g6
NtRp1084
(dp1085
g9
I2
sg10
S'/home/ubuntu/AAS/data/unsup/mix/23.mp3'
p1086
sg12
F282
sg13
I44100
sbag4
(g5
g6
NtRp1087
(dp1088
g9
I2
sg10
S'/home/ubuntu/AAS/data/unsup/mix/24.mp3'
p1089
sg12
F236
sg13
I44100
sbag4
(g5
g6
NtRp1090
(dp1091
g9
I2
sg10
S'/home/ubuntu/AAS/data/unsup/mix/25.mp3'
p1092
sg12
F213
sg13
I44100
sbag4
(g5
g6
NtRp1093
(dp1094
g9
I2
sg10
S'/home/ubuntu/AAS/data/unsup/mix/26.mp3'
p1095
sg12
F262
sg13
I44100
sbag4
(g5
g6
NtRp1096
(dp1097
g9
I2
sg10
S'/home/ubuntu/AAS/data/unsup/mix/27.mp3'
p1098
sg12
F271
sg13
I44100
sbag4
(g5
g6
NtRp1099
(dp1100
g9
I2
sg10
S'/home/ubuntu/AAS/data/unsup/mix/28.mp3'
p1101
sg12
F250
sg13
I44100
sbag4
(g5
g6
NtRp1102
(dp1103
g9
I2
sg10
S'/home/ubuntu/AAS/data/unsup/mix/29.mp3'
p1104
sg12
F231
sg13
I44100
sbag4
(g5
g6
NtRp1105
(dp1106
g9
I2
sg10
S'/home/ubuntu/AAS/data/unsup/mix/30.mp3'
p1107
sg12
F258
sg13
I44100
sbag4
(g5
g6
NtRp1108
(dp1109
g9
I2
sg10
S'/home/ubuntu/AAS/data/unsup/mix/31.mp3'
p1110
sg12
F258
sg13
I44100
sbag4
(g5
g6
NtRp1111
(dp1112
g9
I2
sg10
S'/home/ubuntu/AAS/data/unsup/mix/32.mp3'
p1113
sg12
F251
sg13
I44100
sbag4
(g5
g6
NtRp1114
(dp1115
g9
I2
sg10
S'/home/ubuntu/AAS/data/unsup/mix/33.mp3'
p1116
sg12
F230
sg13
I44100
sbag4
(g5
g6
NtRp1117
(dp1118
g9
I2
sg10
S'/home/ubuntu/AAS/data/unsup/mix/34.mp3'
p1119
sg12
F241
sg13
I44100
sbag4
(g5
g6
NtRp1120
(dp1121
g9
I2
sg10
S'/home/ubuntu/AAS/data/unsup/mix/35.mp3'
p1122
sg12
F242
sg13
I44100
sbag4
(g5
g6
NtRp1123
(dp1124
g9
I2
sg10
S'/home/ubuntu/AAS/data/unsup/mix/36.mp3'
p1125
sg12
F180
sg13
I44100
sbag4
(g5
g6
NtRp1126
(dp1127
g9
I2
sg10
S'/home/ubuntu/AAS/data/unsup/mix/37.mp3'
p1128
sg12
F212
sg13
I44100
sbag4
(g5
g6
NtRp1129
(dp1130
g9
I2
sg10
S'/home/ubuntu/AAS/data/unsup/mix/38.mp3'
p1131
sg12
F185
sg13
I44100
sbag4
(g5
g6
NtRp1132
(dp1133
g9
I2
sg10
S'/home/ubuntu/AAS/data/unsup/mix/39.mp3'
p1134
sg12
F223
sg13
I44100
sbaa(lp1135
g4
(g5
g6
NtRp1136
(dp1137
g9
I1
sg10
S'/home/ubuntu/AAS/data/unsup/acc/2/1.wav_.wav'
p1138
sg12
F72.605034013605447
sg13
I44100
sbag4
(g5
g6
NtRp1139
(dp1140
g9
I1
sg10
S'/home/ubuntu/AAS/data/unsup/acc/1/1.wav_.wav'
p1141
sg12
F72
sg13
I44100
sbag4
(g5
g6
NtRp1142
(dp1143
g9
I1
sg10
S'/home/ubuntu/AAS/data/unsup/acc/4/1.wav_.wav'
p1144
sg12
F192.54546485260772
sg13
I44100
sbag4
(g5
g6
NtRp1145
(dp1146
g9
I2
sg10
S'/home/ubuntu/AAS/data/unsup/acc/3/1.mp3'
p1147
sg12
F261
sg13
I44100
sbaa(lp1148
g4
(g5
g6
NtRp1149
(dp1150
g9
I2
sg10
S'/home/ubuntu/AAS/data/unsup/drums/1.wav'
p1151
sg12
F20.210544217687076
sg13
I44100
sbag4
(g5
g6
NtRp1152
(dp1153
g9
I2
sg10
S'/home/ubuntu/AAS/data/unsup/drums/2.wav'
p1154
sg12
F22.069115646258503
sg13
I44100
sbag4
(g5
g6
NtRp1155
(dp1156
g9
I2
sg10
S'/home/ubuntu/AAS/data/unsup/drums/3.wav'
p1157
sg12
F21.333333333333332
sg13
I44100
sbag4
(g5
g6
NtRp1158
(dp1159
g9
I2
sg10
S'/home/ubuntu/AAS/data/unsup/drums/4.wav'
p1160
sg12
F20.869569160997731
sg13
I44100
sbag4
(g5
g6
NtRp1161
(dp1162
g9
I2
sg10
S'/home/ubuntu/AAS/data/unsup/drums/5.wav'
p1163
sg12
F20.210544217687076
sg13
I44100
sbag4
(g5
g6
NtRp1164
(dp1165
g9
I2
sg10
S'/home/ubuntu/AAS/data/unsup/drums/6.wav'
p1166
sg12
F21.758185941043084
sg13
I44100
sbag4
(g5
g6
NtRp1167
(dp1168
g9
I2
sg10
S'/home/ubuntu/AAS/data/unsup/drums/7.wav'
p1169
sg12
F10.549455782312926
sg13
I44100
sbag4
(g5
g6
NtRp1170
(dp1171
g9
I2
sg10
S'/home/ubuntu/AAS/data/unsup/drums/8.wav'
p1172
sg12
F10.434829931972789
sg13
I44100
sbag4
(g5
g6
NtRp1173
(dp1174
g9
I2
sg10
S'/home/ubuntu/AAS/data/unsup/drums/9.wav'
p1175
sg12
F21.818185941043083
sg13
I44100
sbag4
(g5
g6
NtRp1176
(dp1177
g9
I2
sg10
S'/home/ubuntu/AAS/data/unsup/drums/10.wav'
p1178
sg12
F21.098911564625851
sg13
I44100
sbag4
(g5
g6
NtRp1179
(dp1180
g9
I2
sg10
S'/home/ubuntu/AAS/data/unsup/drums/11.wav'
p1181
sg12
F20.869569160997731
sg13
I44100
sbag4
(g5
g6
NtRp1182
(dp1183
g9
I2
sg10
S'/home/ubuntu/AAS/data/unsup/drums/12.wav'
p1184
sg12
F20.210544217687076
sg13
I44100
sbag4
(g5
g6
NtRp1185
(dp1186
g9
I2
sg10
S'/home/ubuntu/AAS/data/unsup/drums/13.wav'
p1187
sg12
F19.199999999999999
sg13
I44100
sbag4
(g5
g6
NtRp1188
(dp1189
g9
I2
sg10
S'/home/ubuntu/AAS/data/unsup/drums/14.wav'
p1190
sg12
F16.695668934240363
sg13
I44100
sbag4
(g5
g6
NtRp1191
(dp1192
g9
I2
sg10
S'/home/ubuntu/AAS/data/unsup/drums/15.wav'
p1193
sg12
F8.3478458049886619
sg13
I44100
sbag4
(g5
g6
NtRp1194
(dp1195
g9
I2
sg10
S'/home/ubuntu/AAS/data/unsup/drums/16.wav'
p1196
sg12
F8.3478458049886619
sg13
I44100
sbag4
(g5
g6
NtRp1197
(dp1198
g9
I2
sg10
S'/home/ubuntu/AAS/data/unsup/drums/17.wav'
p1199
sg12
F4
sg13
I44100
sbag4
(g5
g6
NtRp1200
(dp1201
g9
I2
sg10
S'/home/ubuntu/AAS/data/unsup/drums/18.wav'
p1202
sg12
F8
sg13
I44100
sbag4
(g5
g6
NtRp1203
(dp1204
g9
I2
sg10
S'/home/ubuntu/AAS/data/unsup/drums/19.wav'
p1205
sg12
F8
sg13
I44100
sbag4
(g5
g6
NtRp1206
(dp1207
g9
I2
sg10
S'/home/ubuntu/AAS/data/unsup/drums/20.wav'
p1208
sg12
F16
sg13
I44100
sbag4
(g5
g6
NtRp1209
(dp1210
g9
I2
sg10
S'/home/ubuntu/AAS/data/unsup/drums/21.wav'
p1211
sg12
F16
sg13
I44100
sbag4
(g5
g6
NtRp1212
(dp1213
g9
I2
sg10
S'/home/ubuntu/AAS/data/unsup/drums/22.wav'
p1214
sg12
F4
sg13
I44100
sbag4
(g5
g6
NtRp1215
(dp1216
g9
I2
sg10
S'/home/ubuntu/AAS/data/unsup/drums/23.wav'
p1217
sg12
F8
sg13
I44100
sbag4
(g5
g6
NtRp1218
(dp1219
g9
I2
sg10
S'/home/ubuntu/AAS/data/unsup/drums/24.wav'
p1220
sg12
F8
sg13
I44100
sbag4
(g5
g6
NtRp1221
(dp1222
g9
I2
sg10
S'/home/ubuntu/AAS/data/unsup/drums/25.wav'
p1223
sg12
F8
sg13
I44100
sbag4
(g5
g6
NtRp1224
(dp1225
g9
I2
sg10
S'/home/ubuntu/AAS/data/unsup/drums/26.wav'
p1226
sg12
F16
sg13
I44100
sbag4
(g5
g6
NtRp1227
(dp1228
g9
I2
sg10
S'/home/ubuntu/AAS/data/unsup/drums/27.wav'
p1229
sg12
F16
sg13
I44100
sbag4
(g5
g6
NtRp1230
(dp1231
g9
I2
sg10
S'/home/ubuntu/AAS/data/unsup/drums/28.wav'
p1232
sg12
F8
sg13
I44100
sbag4
(g5
g6
NtRp1233
(dp1234
g9
I2
sg10
S'/home/ubuntu/AAS/data/unsup/drums/29.wav'
p1235
sg12
F16
sg13
I44100
sbag4
(g5
g6
NtRp1236
(dp1237
g9
I2
sg10
S'/home/ubuntu/AAS/data/unsup/drums/30.wav'
p1238
sg12
F8
sg13
I44100
sbag4
(g5
g6
NtRp1239
(dp1240
g9
I2
sg10
S'/home/ubuntu/AAS/data/unsup/drums/31.wav'
p1241
sg12
F8
sg13
I44100
sbag4
(g5
g6
NtRp1242
(dp1243
g9
I2
sg10
S'/home/ubuntu/AAS/data/unsup/drums/32.wav'
p1244
sg12
F15.737709750566893
sg13
I44100
sbag4
(g5
g6
NtRp1245
(dp1246
g9
I2
sg10
S'/home/ubuntu/AAS/data/unsup/drums/33.wav'
p1247
sg12
F15.737709750566893
sg13
I44100
sbag4
(g5
g6
NtRp1248
(dp1249
g9
I2
sg10
S'/home/ubuntu/AAS/data/unsup/drums/34.wav'
p1250
sg12
F3.9344444444444444
sg13
I44100
sbag4
(g5
g6
NtRp1251
(dp1252
g9
I2
sg10
S'/home/ubuntu/AAS/data/unsup/drums/35.wav'
p1253
sg12
F15.737709750566893
sg13
I44100
sbag4
(g5
g6
NtRp1254
(dp1255
g9
I2
sg10
S'/home/ubuntu/AAS/data/unsup/drums/36.wav'
p1256
sg12
F7.8688662131519278
sg13
I44100
sbag4
(g5
g6
NtRp1257
(dp1258
g9
I2
sg10
S'/home/ubuntu/AAS/data/unsup/drums/37.wav'
p1259
sg12
F9.1048072562358282
sg13
I44100
sbag4
(g5
g6
NtRp1260
(dp1261
g9
I2
sg10
S'/home/ubuntu/AAS/data/unsup/drums/38.wav'
p1262
sg12
F9.8106802721088435
sg13
I44100
sbag4
(g5
g6
NtRp1263
(dp1264
g9
I2
sg10
S'/home/ubuntu/AAS/data/unsup/drums/39.wav'
p1265
sg12
F11.144013605442177
sg13
I44100
sbag4
(g5
g6
NtRp1266
(dp1267
g9
I2
sg10
S'/home/ubuntu/AAS/data/unsup/drums/40.wav'
p1268
sg12
F9.9675510204081625
sg13
I44100
sbag4
(g5
g6
NtRp1269
(dp1270
g9
I2
sg10
S'/home/ubuntu/AAS/data/unsup/drums/41.wav'
p1271
sg12
F9.1682539682539677
sg13
I44100
sbag4
(g5
g6
NtRp1272
(dp1273
g9
I2
sg10
S'/home/ubuntu/AAS/data/unsup/drums/42.wav'
p1274
sg12
F9.9587528344671199
sg13
I44100
sbag4
(g5
g6
NtRp1275
(dp1276
g9
I2
sg10
S'/home/ubuntu/AAS/data/unsup/drums/43.wav'
p1277
sg12
F8.9721768707482994
sg13
I44100
sbag4
(g5
g6
NtRp1278
(dp1279
g9
I2
sg10
S'/home/ubuntu/AAS/data/unsup/drums/44.wav'
p1280
sg12
F12.272471655328799
sg13
I44100
sbag4
(g5
g6
NtRp1281
(dp1282
g9
I2
sg10
S'/home/ubuntu/AAS/data/unsup/drums/45.wav'
p1283
sg12
F9.3557823129251698
sg13
I44100
sbag4
(g5
g6
NtRp1284
(dp1285
g9
I2
sg10
S'/home/ubuntu/AAS/data/unsup/drums/46.wav'
p1286
sg12
F10.140090702947846
sg13
I44100
sbag4
(g5
g6
NtRp1287
(dp1288
g9
I2
sg10
S'/home/ubuntu/AAS/data/unsup/drums/47.wav'
p1289
sg12
F9.889115646258503
sg13
I44100
sbag4
(g5
g6
NtRp1290
(dp1291
g9
I2
sg10
S'/home/ubuntu/AAS/data/unsup/drums/48.wav'
p1292
sg12
F9.7714739229024943
sg13
I44100
sbag4
(g5
g6
NtRp1293
(dp1294
g9
I2
sg10
S'/home/ubuntu/AAS/data/unsup/drums/49.wav'
p1295
sg12
F10.507777777777777
sg13
I44100
sbag4
(g5
g6
NtRp1296
(dp1297
g9
I2
sg10
S'/home/ubuntu/AAS/data/unsup/drums/50.wav'
p1298
sg12
F10.667375
sg13
I48000
sbag4
(g5
g6
NtRp1299
(dp1300
g9
I2
sg10
S'/home/ubuntu/AAS/data/unsup/drums/51.wav'
p1301
sg12
F10.667395833333334
sg13
I48000
sbag4
(g5
g6
NtRp1302
(dp1303
g9
I2
sg10
S'/home/ubuntu/AAS/data/unsup/drums/52.wav'
p1304
sg12
F10.667375
sg13
I48000
sbag4
(g5
g6
NtRp1305
(dp1306
g9
I2
sg10
S'/home/ubuntu/AAS/data/unsup/drums/53.wav'
p1307
sg12
F21.334041666666668
sg13
I48000
sbag4
(g5
g6
NtRp1308
(dp1309
g9
I2
sg10
S'/home/ubuntu/AAS/data/unsup/drums/54.wav'
p1310
sg12
F5.3340416666666668
sg13
I48000
sbag4
(g5
g6
NtRp1311
(dp1312
g9
I2
sg10
S'/home/ubuntu/AAS/data/unsup/drums/55.wav'
p1313
sg12
F5.3340416666666668
sg13
I48000
sbag4
(g5
g6
NtRp1314
(dp1315
g9
I2
sg10
S'/home/ubuntu/AAS/data/unsup/drums/56.wav'
p1316
sg12
F5.3340416666666668
sg13
I48000
sbag4
(g5
g6
NtRp1317
(dp1318
g9
I2
sg10
S'/home/ubuntu/AAS/data/unsup/drums/57.wav'
p1319
sg12
F10.667395833333334
sg13
I48000
sbag4
(g5
g6
NtRp1320
(dp1321
g9
I2
sg10
S'/home/ubuntu/AAS/data/unsup/drums/58.wav'
p1322
sg12
F7.3853333333333335
sg13
I48000
sbag4
(g5
g6
NtRp1323
(dp1324
g9
I2
sg10
S'/home/ubuntu/AAS/data/unsup/drums/59.wav'
p1325
sg12
F7.3853333333333335
sg13
I48000
sbag4
(g5
g6
NtRp1326
(dp1327
g9
I2
sg10
S'/home/ubuntu/AAS/data/unsup/drums/60.wav'
p1328
sg12
F7.3853333333333335
sg13
I48000
sbag4
(g5
g6
NtRp1329
(dp1330
g9
I2
sg10
S'/home/ubuntu/AAS/data/unsup/drums/61.wav'
p1331
sg12
F7.3853333333333335
sg13
I48000
sbag4
(g5
g6
NtRp1332
(dp1333
g9
I2
sg10
S'/home/ubuntu/AAS/data/unsup/drums/62.wav'
p1334
sg12
F3.6930208333333332
sg13
I48000
sbag4
(g5
g6
NtRp1335
(dp1336
g9
I2
sg10
S'/home/ubuntu/AAS/data/unsup/drums/63.wav'
p1337
sg12
F3.6930208333333332
sg13
I48000
sbag4
(g5
g6
NtRp1338
(dp1339
g9
I2
sg10
S'/home/ubuntu/AAS/data/unsup/drums/64.wav'
p1340
sg12
F3.6930208333333332
sg13
I48000
sbag4
(g5
g6
NtRp1341
(dp1342
g9
I2
sg10
S'/home/ubuntu/AAS/data/unsup/drums/65.wav'
p1343
sg12
F7.3853333333333335
sg13
I48000
sbag4
(g5
g6
NtRp1344
(dp1345
g9
I2
sg10
S'/home/ubuntu/AAS/data/unsup/drums/66.wav'
p1346
sg12
F7.3853333333333335
sg13
I48000
sbag4
(g5
g6
NtRp1347
(dp1348
g9
I2
sg10
S'/home/ubuntu/AAS/data/unsup/drums/67.wav'
p1349
sg12
F3.6930208333333332
sg13
I48000
sbag4
(g5
g6
NtRp1350
(dp1351
g9
I2
sg10
S'/home/ubuntu/AAS/data/unsup/drums/68.wav'
p1352
sg12
F7.3853333333333335
sg13
I48000
sbag4
(g5
g6
NtRp1353
(dp1354
g9
I2
sg10
S'/home/ubuntu/AAS/data/unsup/drums/69.wav'
p1355
sg12
F7.3853333333333335
sg13
I48000
sbag4
(g5
g6
NtRp1356
(dp1357
g9
I2
sg10
S'/home/ubuntu/AAS/data/unsup/drums/70.wav'
p1358
sg12
F7.3853333333333335
sg13
I48000
sbag4
(g5
g6
NtRp1359
(dp1360
g9
I2
sg10
S'/home/ubuntu/AAS/data/unsup/drums/71.wav'
p1361
sg12
F14.769937499999999
sg13
I48000
sbag4
(g5
g6
NtRp1362
(dp1363
g9
I2
sg10
S'/home/ubuntu/AAS/data/unsup/drums/72.wav'
p1364
sg12
F10.105979166666666
sg13
I48000
sbag4
(g5
g6
NtRp1365
(dp1366
g9
I2
sg10
S'/home/ubuntu/AAS/data/unsup/drums/73.wav'
p1367
sg12
F10.105979166666666
sg13
I48000
sbag4
(g5
g6
NtRp1368
(dp1369
g9
I2
sg10
S'/home/ubuntu/AAS/data/unsup/drums/74.wav'
p1370
sg12
F10.105979166666666
sg13
I48000
sbag4
(g5
g6
NtRp1371
(dp1372
g9
I2
sg10
S'/home/ubuntu/AAS/data/unsup/drums/75.wav'
p1373
sg12
F5.0533333333333337
sg13
I48000
sbag4
(g5
g6
NtRp1374
(dp1375
g9
I2
sg10
S'/home/ubuntu/AAS/data/unsup/drums/76.wav'
p1376
sg12
F7.5796666666666663
sg13
I48000
sbag4
(g5
g6
NtRp1377
(dp1378
g9
I2
sg10
S'/home/ubuntu/AAS/data/unsup/drums/77.wav'
p1379
sg12
F5.0533541666666668
sg13
I48000
sbag4
(g5
g6
NtRp1380
(dp1381
g9
I2
sg10
S'/home/ubuntu/AAS/data/unsup/drums/78.wav'
p1382
sg12
F10.105979166666666
sg13
I48000
sbag4
(g5
g6
NtRp1383
(dp1384
g9
I2
sg10
S'/home/ubuntu/AAS/data/unsup/drums/79.wav'
p1385
sg12
F10.105979166666666
sg13
I48000
sbag4
(g5
g6
NtRp1386
(dp1387
g9
I2
sg10
S'/home/ubuntu/AAS/data/unsup/drums/80.wav'
p1388
sg12
F10.105979166666666
sg13
I48000
sbag4
(g5
g6
NtRp1389
(dp1390
g9
I2
sg10
S'/home/ubuntu/AAS/data/unsup/drums/81.wav'
p1391
sg12
F10.105979166666666
sg13
I48000
sbag4
(g5
g6
NtRp1392
(dp1393
g9
I2
sg10
S'/home/ubuntu/AAS/data/unsup/drums/82.wav'
p1394
sg12
F10.105979166666666
sg13
I48000
sbag4
(g5
g6
NtRp1395
(dp1396
g9
I2
sg10
S'/home/ubuntu/AAS/data/unsup/drums/83.wav'
p1397
sg12
F10.105979166666666
sg13
I48000
sbag4
(g5
g6
NtRp1398
(dp1399
g9
I2
sg10
S'/home/ubuntu/AAS/data/unsup/drums/84.wav'
p1400
sg12
F10.105979166666666
sg13
I48000
sbag4
(g5
g6
NtRp1401
(dp1402
g9
I2
sg10
S'/home/ubuntu/AAS/data/unsup/drums/85.wav'
p1403
sg12
F12.152604166666666
sg13
I48000
sbag4
(g5
g6
NtRp1404
(dp1405
g9
I2
sg10
S'/home/ubuntu/AAS/data/unsup/drums/86.wav'
p1406
sg12
F12.152604166666666
sg13
I48000
sbag4
(g5
g6
NtRp1407
(dp1408
g9
I2
sg10
S'/home/ubuntu/AAS/data/unsup/drums/87.wav'
p1409
sg12
F12.152604166666666
sg13
I48000
sbag4
(g5
g6
NtRp1410
(dp1411
g9
I2
sg10
S'/home/ubuntu/AAS/data/unsup/drums/88.wav'
p1412
sg12
F6.0766666666666671
sg13
I48000
sbag4
(g5
g6
NtRp1413
(dp1414
g9
I2
sg10
S'/home/ubuntu/AAS/data/unsup/drums/89.wav'
p1415
sg12
F12.152604166666666
sg13
I48000
sbag4
(g5
g6
NtRp1416
(dp1417
g9
I2
sg10
S'/home/ubuntu/AAS/data/unsup/drums/90.wav'
p1418
sg12
F12.152604166666666
sg13
I48000
sbag4
(g5
g6
NtRp1419
(dp1420
g9
I2
sg10
S'/home/ubuntu/AAS/data/unsup/drums/91.wav'
p1421
sg12
F12.152604166666666
sg13
I48000
sbag4
(g5
g6
NtRp1422
(dp1423
g9
I2
sg10
S'/home/ubuntu/AAS/data/unsup/drums/92.wav'
p1424
sg12
F12.152625
sg13
I48000
sbag4
(g5
g6
NtRp1425
(dp1426
g9
I2
sg10
S'/home/ubuntu/AAS/data/unsup/drums/93.wav'
p1427
sg12
F3.6930208333333332
sg13
I48000
sbag4
(g5
g6
NtRp1428
(dp1429
g9
I2
sg10
S'/home/ubuntu/AAS/data/unsup/drums/94.wav'
p1430
sg12
F3.6930208333333332
sg13
I48000
sbag4
(g5
g6
NtRp1431
(dp1432
g9
I2
sg10
S'/home/ubuntu/AAS/data/unsup/drums/95.wav'
p1433
sg12
F3.6930208333333332
sg13
I48000
sbag4
(g5
g6
NtRp1434
(dp1435
g9
I2
sg10
S'/home/ubuntu/AAS/data/unsup/drums/96.wav'
p1436
sg12
F3.6930208333333332
sg13
I48000
sbag4
(g5
g6
NtRp1437
(dp1438
g9
I2
sg10
S'/home/ubuntu/AAS/data/unsup/drums/97.wav'
p1439
sg12
F7.3853333333333335
sg13
I48000
sbag4
(g5
g6
NtRp1440
(dp1441
g9
I2
sg10
S'/home/ubuntu/AAS/data/unsup/drums/98.wav'
p1442
sg12
F7.3853333333333335
sg13
I48000
sbag4
(g5
g6
NtRp1443
(dp1444
g9
I2
sg10
S'/home/ubuntu/AAS/data/unsup/drums/99.wav'
p1445
sg12
F7.3853333333333335
sg13
I48000
sbag4
(g5
g6
NtRp1446
(dp1447
g9
I2
sg10
S'/home/ubuntu/AAS/data/unsup/drums/100.wav'
p1448
sg12
F7.3853333333333335
sg13
I48000
sbag4
(g5
g6
NtRp1449
(dp1450
g9
I2
sg10
S'/home/ubuntu/AAS/data/unsup/drums/101.wav'
p1451
sg12
F7.3853333333333335
sg13
I48000
sbag4
(g5
g6
NtRp1452
(dp1453
g9
I2
sg10
S'/home/ubuntu/AAS/data/unsup/drums/102.wav'
p1454
sg12
F7.3853333333333335
sg13
I48000
sbag4
(g5
g6
NtRp1455
(dp1456
g9
I2
sg10
S'/home/ubuntu/AAS/data/unsup/drums/103.wav'
p1457
sg12
F7.3853333333333335
sg13
I48000
sbag4
(g5
g6
NtRp1458
(dp1459
g9
I2
sg10
S'/home/ubuntu/AAS/data/unsup/drums/104.wav'
p1460
sg12
F7.3853333333333335
sg13
I48000
sbag4
(g5
g6
NtRp1461
(dp1462
g9
I2
sg10
S'/home/ubuntu/AAS/data/unsup/drums/105.wav'
p1463
sg12
F7.3853333333333335
sg13
I48000
sbag4
(g5
g6
NtRp1464
(dp1465
g9
I2
sg10
S'/home/ubuntu/AAS/data/unsup/drums/106.wav'
p1466
sg12
F7.3853333333333335
sg13
I48000
sbag4
(g5
g6
NtRp1467
(dp1468
g9
I2
sg10
S'/home/ubuntu/AAS/data/unsup/drums/107.wav'
p1469
sg12
F7.3853333333333335
sg13
I48000
sbag4
(g5
g6
NtRp1470
(dp1471
g9
I2
sg10
S'/home/ubuntu/AAS/data/unsup/drums/108.wav'
p1472
sg12
F7.3853333333333335
sg13
I48000
sbag4
(g5
g6
NtRp1473
(dp1474
g9
I2
sg10
S'/home/ubuntu/AAS/data/unsup/drums/109.wav'
p1475
sg12
F7.3853333333333335
sg13
I48000
sbag4
(g5
g6
NtRp1476
(dp1477
g9
I2
sg10
S'/home/ubuntu/AAS/data/unsup/drums/110.wav'
p1478
sg12
F7.3853333333333335
sg13
I48000
sbag4
(g5
g6
NtRp1479
(dp1480
g9
I2
sg10
S'/home/ubuntu/AAS/data/unsup/drums/111.wav'
p1481
sg12
F8.5721458333333338
sg13
I48000
sbag4
(g5
g6
NtRp1482
(dp1483
g9
I2
sg10
S'/home/ubuntu/AAS/data/unsup/drums/112.wav'
p1484
sg12
F8.5721458333333338
sg13
I48000
sbag4
(g5
g6
NtRp1485
(dp1486
g9
I2
sg10
S'/home/ubuntu/AAS/data/unsup/drums/113.wav'
p1487
sg12
F6.4292916666666668
sg13
I48000
sbag4
(g5
g6
NtRp1488
(dp1489
g9
I2
sg10
S'/home/ubuntu/AAS/data/unsup/drums/114.wav'
p1490
sg12
F8.5721458333333338
sg13
I48000
sbag4
(g5
g6
NtRp1491
(dp1492
g9
I2
sg10
S'/home/ubuntu/AAS/data/unsup/drums/115.wav'
p1493
sg12
F4.2864374999999999
sg13
I48000
sbag4
(g5
g6
NtRp1494
(dp1495
g9
I2
sg10
S'/home/ubuntu/AAS/data/unsup/drums/116.wav'
p1496
sg12
F8.5721458333333338
sg13
I48000
sbag4
(g5
g6
NtRp1497
(dp1498
g9
I2
sg10
S'/home/ubuntu/AAS/data/unsup/drums/117.wav'
p1499
sg12
F8.5721458333333338
sg13
I48000
sbag4
(g5
g6
NtRp1500
(dp1501
g9
I2
sg10
S'/home/ubuntu/AAS/data/unsup/drums/118.wav'
p1502
sg12
F8.5721458333333338
sg13
I48000
sbag4
(g5
g6
NtRp1503
(dp1504
g9
I2
sg10
S'/home/ubuntu/AAS/data/unsup/drums/119.wav'
p1505
sg12
F8.5721458333333338
sg13
I48000
sbag4
(g5
g6
NtRp1506
(dp1507
g9
I2
sg10
S'/home/ubuntu/AAS/data/unsup/drums/120.wav'
p1508
sg12
F8.5721458333333338
sg13
I48000
sbag4
(g5
g6
NtRp1509
(dp1510
g9
I2
sg10
S'/home/ubuntu/AAS/data/unsup/drums/121.wav'
p1511
sg12
F8.5721458333333338
sg13
I48000
sbag4
(g5
g6
NtRp1512
(dp1513
g9
I2
sg10
S'/home/ubuntu/AAS/data/unsup/drums/122.wav'
p1514
sg12
F8.5721458333333338
sg13
I48000
sbag4
(g5
g6
NtRp1515
(dp1516
g9
I2
sg10
S'/home/ubuntu/AAS/data/unsup/drums/123.wav'
p1517
sg12
F8.5721458333333338
sg13
I48000
sbag4
(g5
g6
NtRp1518
(dp1519
g9
I2
sg10
S'/home/ubuntu/AAS/data/unsup/drums/124.wav'
p1520
sg12
F8.5721458333333338
sg13
I48000
sbag4
(g5
g6
NtRp1521
(dp1522
g9
I2
sg10
S'/home/ubuntu/AAS/data/unsup/drums/125.wav'
p1523
sg12
F8.5721458333333338
sg13
I48000
sbag4
(g5
g6
NtRp1524
(dp1525
g9
I2
sg10
S'/home/ubuntu/AAS/data/unsup/drums/126.wav'
p1526
sg12
F8.5721458333333338
sg13
I48000
sbag4
(g5
g6
NtRp1527
(dp1528
g9
I2
sg10
S'/home/ubuntu/AAS/data/unsup/drums/127.wav'
p1529
sg12
F10.787229166666666
sg13
I48000
sbag4
(g5
g6
NtRp1530
(dp1531
g9
I2
sg10
S'/home/ubuntu/AAS/data/unsup/drums/128.wav'
p1532
sg12
F10.787229166666666
sg13
I48000
sbag4
(g5
g6
NtRp1533
(dp1534
g9
I2
sg10
S'/home/ubuntu/AAS/data/unsup/drums/129.wav'
p1535
sg12
F5.393979166666667
sg13
I48000
sbag4
(g5
g6
NtRp1536
(dp1537
g9
I2
sg10
S'/home/ubuntu/AAS/data/unsup/drums/130.wav'
p1538
sg12
F5.393979166666667
sg13
I48000
sbag4
(g5
g6
NtRp1539
(dp1540
g9
I2
sg10
S'/home/ubuntu/AAS/data/unsup/drums/131.wav'
p1541
sg12
F5.393958333333333
sg13
I48000
sbag4
(g5
g6
NtRp1542
(dp1543
g9
I2
sg10
S'/home/ubuntu/AAS/data/unsup/drums/132.wav'
p1544
sg12
F5.393979166666667
sg13
I48000
sbag4
(g5
g6
NtRp1545
(dp1546
g9
I2
sg10
S'/home/ubuntu/AAS/data/unsup/drums/133.wav'
p1547
sg12
F10.787229166666666
sg13
I48000
sbag4
(g5
g6
NtRp1548
(dp1549
g9
I2
sg10
S'/home/ubuntu/AAS/data/unsup/drums/134.wav'
p1550
sg12
F10.787229166666666
sg13
I48000
sbag4
(g5
g6
NtRp1551
(dp1552
g9
I2
sg10
S'/home/ubuntu/AAS/data/unsup/drums/135.wav'
p1553
sg12
F10.787229166666666
sg13
I48000
sbag4
(g5
g6
NtRp1554
(dp1555
g9
I2
sg10
S'/home/ubuntu/AAS/data/unsup/drums/136.wav'
p1556
sg12
F10.787229166666666
sg13
I48000
sbag4
(g5
g6
NtRp1557
(dp1558
g9
I2
sg10
S'/home/ubuntu/AAS/data/unsup/drums/137.wav'
p1559
sg12
F10.787229166666666
sg13
I48000
sbag4
(g5
g6
NtRp1560
(dp1561
g9
I2
sg10
S'/home/ubuntu/AAS/data/unsup/drums/138.wav'
p1562
sg12
F10.787229166666666
sg13
I48000
sbag4
(g5
g6
NtRp1563
(dp1564
g9
I2
sg10
S'/home/ubuntu/AAS/data/unsup/drums/139.wav'
p1565
sg12
F10.787229166666666
sg13
I48000
sbag4
(g5
g6
NtRp1566
(dp1567
g9
I2
sg10
S'/home/ubuntu/AAS/data/unsup/drums/140.wav'
p1568
sg12
F4.0685208333333334
sg13
I48000
sbag4
(g5
g6
NtRp1569
(dp1570
g9
I2
sg10
S'/home/ubuntu/AAS/data/unsup/drums/141.wav'
p1571
sg12
F2.0346041666666665
sg13
I48000
sbag4
(g5
g6
NtRp1572
(dp1573
g9
I2
sg10
S'/home/ubuntu/AAS/data/unsup/drums/142.wav'
p1574
sg12
F4.0685208333333334
sg13
I48000
sbag4
(g5
g6
NtRp1575
(dp1576
g9
I2
sg10
S'/home/ubuntu/AAS/data/unsup/drums/143.wav'
p1577
sg12
F6.1024166666666666
sg13
I48000
sbag4
(g5
g6
NtRp1578
(dp1579
g9
I2
sg10
S'/home/ubuntu/AAS/data/unsup/drums/144.wav'
p1580
sg12
F6.1023958333333335
sg13
I48000
sbag4
(g5
g6
NtRp1581
(dp1582
g9
I2
sg10
S'/home/ubuntu/AAS/data/unsup/drums/145.wav'
p1583
sg12
F8.1363125000000007
sg13
I48000
sbag4
(g5
g6
NtRp1584
(dp1585
g9
I2
sg10
S'/home/ubuntu/AAS/data/unsup/drums/146.wav'
p1586
sg12
F4.0685000000000002
sg13
I48000
sbag4
(g5
g6
NtRp1587
(dp1588
g9
I2
sg10
S'/home/ubuntu/AAS/data/unsup/drums/147.wav'
p1589
sg12
F8.1363125000000007
sg13
I48000
sbag4
(g5
g6
NtRp1590
(dp1591
g9
I2
sg10
S'/home/ubuntu/AAS/data/unsup/drums/148.wav'
p1592
sg12
F8.1363125000000007
sg13
I48000
sbag4
(g5
g6
NtRp1593
(dp1594
g9
I2
sg10
S'/home/ubuntu/AAS/data/unsup/drums/149.wav'
p1595
sg12
F8.1363125000000007
sg13
I48000
sbag4
(g5
g6
NtRp1596
(dp1597
g9
I2
sg10
S'/home/ubuntu/AAS/data/unsup/drums/150.wav'
p1598
sg12
F11.429291666666666
sg13
I48000
sbag4
(g5
g6
NtRp1599
(dp1600
g9
I2
sg10
S'/home/ubuntu/AAS/data/unsup/drums/151.wav'
p1601
sg12
F11.429291666666666
sg13
I48000
sbag4
(g5
g6
NtRp1602
(dp1603
g9
I2
sg10
S'/home/ubuntu/AAS/data/unsup/drums/152.wav'
p1604
sg12
F11.429270833333334
sg13
I48000
sbag4
(g5
g6
NtRp1605
(dp1606
g9
I2
sg10
S'/home/ubuntu/AAS/data/unsup/drums/153.wav'
p1607
sg12
F11.429291666666666
sg13
I48000
sbag4
(g5
g6
NtRp1608
(dp1609
g9
I2
sg10
S'/home/ubuntu/AAS/data/unsup/drums/154.wav'
p1610
sg12
F5.7149999999999999
sg13
I48000
sbag4
(g5
g6
NtRp1611
(dp1612
g9
I2
sg10
S'/home/ubuntu/AAS/data/unsup/drums/155.wav'
p1613
sg12
F5.7149999999999999
sg13
I48000
sbag4
(g5
g6
NtRp1614
(dp1615
g9
I2
sg10
S'/home/ubuntu/AAS/data/unsup/drums/156.wav'
p1616
sg12
F5.7149999999999999
sg13
I48000
sbag4
(g5
g6
NtRp1617
(dp1618
g9
I2
sg10
S'/home/ubuntu/AAS/data/unsup/drums/157.wav'
p1619
sg12
F5.7149999999999999
sg13
I48000
sbag4
(g5
g6
NtRp1620
(dp1621
g9
I2
sg10
S'/home/ubuntu/AAS/data/unsup/drums/158.wav'
p1622
sg12
F11.429291666666666
sg13
I48000
sbag4
(g5
g6
NtRp1623
(dp1624
g9
I2
sg10
S'/home/ubuntu/AAS/data/unsup/drums/159.wav'
p1625
sg12
F11.429291666666666
sg13
I48000
sbag4
(g5
g6
NtRp1626
(dp1627
g9
I2
sg10
S'/home/ubuntu/AAS/data/unsup/drums/160.wav'
p1628
sg12
F11.429270833333334
sg13
I48000
sbag4
(g5
g6
NtRp1629
(dp1630
g9
I2
sg10
S'/home/ubuntu/AAS/data/unsup/drums/161.wav'
p1631
sg12
F11.429291666666666
sg13
I48000
sbag4
(g5
g6
NtRp1632
(dp1633
g9
I2
sg10
S'/home/ubuntu/AAS/data/unsup/drums/162.wav'
p1634
sg12
F11.429291666666666
sg13
I48000
sbag4
(g5
g6
NtRp1635
(dp1636
g9
I2
sg10
S'/home/ubuntu/AAS/data/unsup/drums/163.wav'
p1637
sg12
F11.429291666666666
sg13
I48000
sbag4
(g5
g6
NtRp1638
(dp1639
g9
I2
sg10
S'/home/ubuntu/AAS/data/unsup/drums/164.wav'
p1640
sg12
F11.429270833333334
sg13
I48000
sbag4
(g5
g6
NtRp1641
(dp1642
g9
I2
sg10
S'/home/ubuntu/AAS/data/unsup/drums/165.wav'
p1643
sg12
F11.429291666666666
sg13
I48000
sbag4
(g5
g6
NtRp1644
(dp1645
g9
I2
sg10
S'/home/ubuntu/AAS/data/unsup/drums/166.wav'
p1646
sg12
F12.000708333333334
sg13
I48000
sbag4
(g5
g6
NtRp1647
(dp1648
g9
I2
sg10
S'/home/ubuntu/AAS/data/unsup/drums/167.wav'
p1649
sg12
F12.000708333333334
sg13
I48000
sbag4
(g5
g6
NtRp1650
(dp1651
g9
I2
sg10
S'/home/ubuntu/AAS/data/unsup/drums/168.wav'
p1652
sg12
F6.0007083333333338
sg13
I48000
sbag4
(g5
g6
NtRp1653
(dp1654
g9
I2
sg10
S'/home/ubuntu/AAS/data/unsup/drums/169.wav'
p1655
sg12
F6.0007083333333338
sg13
I48000
sbag4
(g5
g6
NtRp1656
(dp1657
g9
I2
sg10
S'/home/ubuntu/AAS/data/unsup/drums/170.wav'
p1658
sg12
F12.000708333333334
sg13
I48000
sbag4
(g5
g6
NtRp1659
(dp1660
g9
I2
sg10
S'/home/ubuntu/AAS/data/unsup/drums/171.wav'
p1661
sg12
F12.000708333333334
sg13
I48000
sbag4
(g5
g6
NtRp1662
(dp1663
g9
I2
sg10
S'/home/ubuntu/AAS/data/unsup/drums/172.wav'
p1664
sg12
F11.250708333333334
sg13
I48000
sbag4
(g5
g6
NtRp1665
(dp1666
g9
I2
sg10
S'/home/ubuntu/AAS/data/unsup/drums/173.wav'
p1667
sg12
F12.000708333333334
sg13
I48000
sbag4
(g5
g6
NtRp1668
(dp1669
g9
I2
sg10
S'/home/ubuntu/AAS/data/unsup/drums/174.wav'
p1670
sg12
F6.3164999999999996
sg13
I48000
sbag4
(g5
g6
NtRp1671
(dp1672
g9
I2
sg10
S'/home/ubuntu/AAS/data/unsup/drums/175.wav'
p1673
sg12
F8.4217708333333334
sg13
I48000
sbag4
(g5
g6
NtRp1674
(dp1675
g9
I2
sg10
S'/home/ubuntu/AAS/data/unsup/drums/176.wav'
p1676
sg12
F8.4217708333333334
sg13
I48000
sbag4
(g5
g6
NtRp1677
(dp1678
g9
I2
sg10
S'/home/ubuntu/AAS/data/unsup/drums/177.wav'
p1679
sg12
F8.4217708333333334
sg13
I48000
sbaas.