(dp1
S'test'
p2
(lp3
(ccopy_reg
_reconstructor
p4
(cSample
Sample
p5
c__builtin__
object
p6
NtRp7
(dp8
S'channels'
p9
I2
sS'path'
p10
S'/home/ubuntu/AAS/data/DSD100/Mixtures/Test/033 - Sambasevam Shanmugam - Kaathaadi/mixture.wav'
p11
sS'duration'
p12
F317.879456
sS'sample_rate'
p13
I44100
sbg4
(g5
g6
NtRp14
(dp15
g9
I2
sg10
S'/home/ubuntu/AAS/data/DSD100/Mixtures/Test/033 - Sambasevam Shanmugam - Kaathaadi/remainingmix.wav'
p16
sg12
F317.879456
sg13
I44100
sbg4
(g5
g6
NtRp17
(dp18
g9
I2
sg10
S'/home/ubuntu/AAS/data/DSD100/Sources/Test/033 - Sambasevam Shanmugam - Kaathaadi/drums.wav'
p19
sg12
F317.879456
sg13
I44100
sbtp20
a(g4
(g5
g6
NtRp21
(dp22
g9
I2
sg10
S'/home/ubuntu/AAS/data/DSD100/Mixtures/Test/034 - Secretariat - Over The Top/mixture.wav'
p23
sg12
F251.09587300000001
sg13
I44100
sbg4
(g5
g6
NtRp24
(dp25
g9
I2
sg10
S'/home/ubuntu/AAS/data/DSD100/Mixtures/Test/034 - Secretariat - Over The Top/remainingmix.wav'
p26
sg12
F251.09587300000001
sg13
I44100
sbg4
(g5
g6
NtRp27
(dp28
g9
I2
sg10
S'/home/ubuntu/AAS/data/DSD100/Sources/Test/034 - Secretariat - Over The Top/drums.wav'
p29
sg12
F251.09587300000001
sg13
I44100
sbtp30
a(g4
(g5
g6
NtRp31
(dp32
g9
I2
sg10
S'/home/ubuntu/AAS/data/DSD100/Mixtures/Test/035 - Signe Jakobsen - What Have You Done To Me/mixture.wav'
p33
sg12
F177.397324
sg13
I44100
sbg4
(g5
g6
NtRp34
(dp35
g9
I2
sg10
S'/home/ubuntu/AAS/data/DSD100/Mixtures/Test/035 - Signe Jakobsen - What Have You Done To Me/remainingmix.wav'
p36
sg12
F177.397324
sg13
I44100
sbg4
(g5
g6
NtRp37
(dp38
g9
I2
sg10
S'/home/ubuntu/AAS/data/DSD100/Sources/Test/035 - Signe Jakobsen - What Have You Done To Me/drums.wav'
p39
sg12
F177.397324
sg13
I44100
sbtp40
a(g4
(g5
g6
NtRp41
(dp42
g9
I2
sg10
S'/home/ubuntu/AAS/data/DSD100/Mixtures/Test/036 - Skelpolu - Resurrection/mixture.wav'
p43
sg12
F395.66292499999997
sg13
I44100
sbg4
(g5
g6
NtRp44
(dp45
g9
I2
sg10
S'/home/ubuntu/AAS/data/DSD100/Mixtures/Test/036 - Skelpolu - Resurrection/remainingmix.wav'
p46
sg12
F395.66292499999997
sg13
I44100
sbg4
(g5
g6
NtRp47
(dp48
g9
I2
sg10
S'/home/ubuntu/AAS/data/DSD100/Sources/Test/036 - Skelpolu - Resurrection/drums.wav'
p49
sg12
F395.66292499999997
sg13
I44100
sbtp50
a(g4
(g5
g6
NtRp51
(dp52
g9
I2
sg10
S'/home/ubuntu/AAS/data/DSD100/Mixtures/Test/037 - Speak Softly - Broken Man/mixture.wav'
p53
sg12
F253.16018099999999
sg13
I44100
sbg4
(g5
g6
NtRp54
(dp55
g9
I2
sg10
S'/home/ubuntu/AAS/data/DSD100/Mixtures/Test/037 - Speak Softly - Broken Man/remainingmix.wav'
p56
sg12
F253.16018099999999
sg13
I44100
sbg4
(g5
g6
NtRp57
(dp58
g9
I2
sg10
S'/home/ubuntu/AAS/data/DSD100/Sources/Test/037 - Speak Softly - Broken Man/drums.wav'
p59
sg12
F253.16018099999999
sg13
I44100
sbtp60
a(g4
(g5
g6
NtRp61
(dp62
g9
I2
sg10
S"/home/ubuntu/AAS/data/DSD100/Mixtures/Test/038 - Spike Mullings - Mike's Sulking/mixture.wav"
p63
sg12
F256.87498900000003
sg13
I44100
sbg4
(g5
g6
NtRp64
(dp65
g9
I2
sg10
S"/home/ubuntu/AAS/data/DSD100/Mixtures/Test/038 - Spike Mullings - Mike's Sulking/remainingmix.wav"
p66
sg12
F256.87498900000003
sg13
I44100
sbg4
(g5
g6
NtRp67
(dp68
g9
I2
sg10
S"/home/ubuntu/AAS/data/DSD100/Sources/Test/038 - Spike Mullings - Mike's Sulking/drums.wav"
p69
sg12
F256.87498900000003
sg13
I44100
sbtp70
a(g4
(g5
g6
NtRp71
(dp72
g9
I2
sg10
S'/home/ubuntu/AAS/data/DSD100/Mixtures/Test/022 - Johnny Lokke - Promises & Lies/mixture.wav'
p73
sg12
F286
sg13
I44100
sbg4
(g5
g6
NtRp74
(dp75
g9
I2
sg10
S'/home/ubuntu/AAS/data/DSD100/Mixtures/Test/022 - Johnny Lokke - Promises & Lies/remainingmix.wav'
p76
sg12
F286
sg13
I44100
sbg4
(g5
g6
NtRp77
(dp78
g9
I2
sg10
S'/home/ubuntu/AAS/data/DSD100/Sources/Test/022 - Johnny Lokke - Promises & Lies/drums.wav'
p79
sg12
F286
sg13
I44100
sbtp80
a(g4
(g5
g6
NtRp81
(dp82
g9
I2
sg10
S'/home/ubuntu/AAS/data/DSD100/Mixtures/Test/023 - Jokers, Jacks & Kings - Sea Of Leaves/mixture.wav'
p83
sg12
F191.651791
sg13
I44100
sbg4
(g5
g6
NtRp84
(dp85
g9
I2
sg10
S'/home/ubuntu/AAS/data/DSD100/Mixtures/Test/023 - Jokers, Jacks & Kings - Sea Of Leaves/remainingmix.wav'
p86
sg12
F191.651791
sg13
I44100
sbg4
(g5
g6
NtRp87
(dp88
g9
I2
sg10
S'/home/ubuntu/AAS/data/DSD100/Sources/Test/023 - Jokers, Jacks & Kings - Sea Of Leaves/drums.wav'
p89
sg12
F191.651791
sg13
I44100
sbtp90
a(g4
(g5
g6
NtRp91
(dp92
g9
I2
sg10
S'/home/ubuntu/AAS/data/DSD100/Mixtures/Test/024 - Leaf - Come Around/mixture.wav'
p93
sg12
F264.58036299999998
sg13
I44100
sbg4
(g5
g6
NtRp94
(dp95
g9
I2
sg10
S'/home/ubuntu/AAS/data/DSD100/Mixtures/Test/024 - Leaf - Come Around/remainingmix.wav'
p96
sg12
F264.58036299999998
sg13
I44100
sbg4
(g5
g6
NtRp97
(dp98
g9
I2
sg10
S'/home/ubuntu/AAS/data/DSD100/Sources/Test/024 - Leaf - Come Around/drums.wav'
p99
sg12
F264.58036299999998
sg13
I44100
sbtp100
a(g4
(g5
g6
NtRp101
(dp102
g9
I2
sg10
S'/home/ubuntu/AAS/data/DSD100/Mixtures/Test/025 - Leaf - Wicked/mixture.wav'
p103
sg12
F190.82142899999999
sg13
I44100
sbg4
(g5
g6
NtRp104
(dp105
g9
I2
sg10
S'/home/ubuntu/AAS/data/DSD100/Mixtures/Test/025 - Leaf - Wicked/remainingmix.wav'
p106
sg12
F190.82142899999999
sg13
I44100
sbg4
(g5
g6
NtRp107
(dp108
g9
I2
sg10
S'/home/ubuntu/AAS/data/DSD100/Sources/Test/025 - Leaf - Wicked/drums.wav'
p109
sg12
F190.82142899999999
sg13
I44100
sbtp110
a(g4
(g5
g6
NtRp111
(dp112
g9
I2
sg10
S'/home/ubuntu/AAS/data/DSD100/Mixtures/Test/026 - Louis Cressy Band - Good Time/mixture.wav'
p113
sg12
F292.82142900000002
sg13
I44100
sbg4
(g5
g6
NtRp114
(dp115
g9
I2
sg10
S'/home/ubuntu/AAS/data/DSD100/Mixtures/Test/026 - Louis Cressy Band - Good Time/remainingmix.wav'
p116
sg12
F292.82142900000002
sg13
I44100
sbg4
(g5
g6
NtRp117
(dp118
g9
I2
sg10
S'/home/ubuntu/AAS/data/DSD100/Sources/Test/026 - Louis Cressy Band - Good Time/drums.wav'
p119
sg12
F292.82142900000002
sg13
I44100
sbtp120
a(g4
(g5
g6
NtRp121
(dp122
g9
I2
sg10
S'/home/ubuntu/AAS/data/DSD100/Mixtures/Test/027 - M.E.R.C. Music - Knockout/mixture.wav'
p123
sg12
F270
sg13
I44100
sbg4
(g5
g6
NtRp124
(dp125
g9
I2
sg10
S'/home/ubuntu/AAS/data/DSD100/Mixtures/Test/027 - M.E.R.C. Music - Knockout/remainingmix.wav'
p126
sg12
F270
sg13
I44100
sbg4
(g5
g6
NtRp127
(dp128
g9
I2
sg10
S'/home/ubuntu/AAS/data/DSD100/Sources/Test/027 - M.E.R.C. Music - Knockout/drums.wav'
p129
sg12
F270
sg13
I44100
sbtp130
a(g4
(g5
g6
NtRp131
(dp132
g9
I2
sg10
S'/home/ubuntu/AAS/data/DSD100/Mixtures/Test/028 - Motor Tapes - Shore/mixture.wav'
p133
sg12
F246.72322
sg13
I44100
sbg4
(g5
g6
NtRp134
(dp135
g9
I2
sg10
S'/home/ubuntu/AAS/data/DSD100/Mixtures/Test/028 - Motor Tapes - Shore/remainingmix.wav'
p136
sg12
F246.72322
sg13
I44100
sbg4
(g5
g6
NtRp137
(dp138
g9
I2
sg10
S'/home/ubuntu/AAS/data/DSD100/Sources/Test/028 - Motor Tapes - Shore/drums.wav'
p139
sg12
F246.72322
sg13
I44100
sbtp140
a(g4
(g5
g6
NtRp141
(dp142
g9
I2
sg10
S'/home/ubuntu/AAS/data/DSD100/Mixtures/Test/029 - Nerve 9 - Pray For The Rain/mixture.wav'
p143
sg12
F343.71428600000002
sg13
I44100
sbg4
(g5
g6
NtRp144
(dp145
g9
I2
sg10
S'/home/ubuntu/AAS/data/DSD100/Mixtures/Test/029 - Nerve 9 - Pray For The Rain/remainingmix.wav'
p146
sg12
F343.71428600000002
sg13
I44100
sbg4
(g5
g6
NtRp147
(dp148
g9
I2
sg10
S'/home/ubuntu/AAS/data/DSD100/Sources/Test/029 - Nerve 9 - Pray For The Rain/drums.wav'
p149
sg12
F343.71428600000002
sg13
I44100
sbtp150
a(g4
(g5
g6
NtRp151
(dp152
g9
I2
sg10
S'/home/ubuntu/AAS/data/DSD100/Mixtures/Test/013 - Drumtracks - Ghost Bitch/mixture.wav'
p153
sg12
F357.09374100000002
sg13
I44100
sbg4
(g5
g6
NtRp154
(dp155
g9
I2
sg10
S'/home/ubuntu/AAS/data/DSD100/Mixtures/Test/013 - Drumtracks - Ghost Bitch/remainingmix.wav'
p156
sg12
F357.09374100000002
sg13
I44100
sbg4
(g5
g6
NtRp157
(dp158
g9
I2
sg10
S'/home/ubuntu/AAS/data/DSD100/Sources/Test/013 - Drumtracks - Ghost Bitch/drums.wav'
p159
sg12
F357.09374100000002
sg13
I44100
sbtp160
a(g4
(g5
g6
NtRp161
(dp162
g9
I2
sg10
S'/home/ubuntu/AAS/data/DSD100/Mixtures/Test/014 - Fergessen - Back From The Start/mixture.wav'
p163
sg12
F168.74553299999999
sg13
I44100
sbg4
(g5
g6
NtRp164
(dp165
g9
I2
sg10
S'/home/ubuntu/AAS/data/DSD100/Mixtures/Test/014 - Fergessen - Back From The Start/remainingmix.wav'
p166
sg12
F168.74553299999999
sg13
I44100
sbg4
(g5
g6
NtRp167
(dp168
g9
I2
sg10
S'/home/ubuntu/AAS/data/DSD100/Sources/Test/014 - Fergessen - Back From The Start/drums.wav'
p169
sg12
F168.74553299999999
sg13
I44100
sbtp170
a(g4
(g5
g6
NtRp171
(dp172
g9
I2
sg10
S'/home/ubuntu/AAS/data/DSD100/Mixtures/Test/015 - Fergessen - The Wind/mixture.wav'
p173
sg12
F192
sg13
I44100
sbg4
(g5
g6
NtRp174
(dp175
g9
I2
sg10
S'/home/ubuntu/AAS/data/DSD100/Mixtures/Test/015 - Fergessen - The Wind/remainingmix.wav'
p176
sg12
F192
sg13
I44100
sbg4
(g5
g6
NtRp177
(dp178
g9
I2
sg10
S'/home/ubuntu/AAS/data/DSD100/Sources/Test/015 - Fergessen - The Wind/drums.wav'
p179
sg12
F192
sg13
I44100
sbtp180
a(g4
(g5
g6
NtRp181
(dp182
g9
I2
sg10
S'/home/ubuntu/AAS/data/DSD100/Mixtures/Test/016 - Forkupines - Semantics/mixture.wav'
p183
sg12
F273.58483000000001
sg13
I44100
sbg4
(g5
g6
NtRp184
(dp185
g9
I2
sg10
S'/home/ubuntu/AAS/data/DSD100/Mixtures/Test/016 - Forkupines - Semantics/remainingmix.wav'
p186
sg12
F273.58483000000001
sg13
I44100
sbg4
(g5
g6
NtRp187
(dp188
g9
I2
sg10
S'/home/ubuntu/AAS/data/DSD100/Sources/Test/016 - Forkupines - Semantics/drums.wav'
p189
sg12
F273.58483000000001
sg13
I44100
sbtp190
a(g4
(g5
g6
NtRp191
(dp192
g9
I2
sg10
S'/home/ubuntu/AAS/data/DSD100/Mixtures/Test/017 - Girls Under Glass - We Feel Alright/mixture.wav'
p193
sg12
F317.28124700000001
sg13
I44100
sbg4
(g5
g6
NtRp194
(dp195
g9
I2
sg10
S'/home/ubuntu/AAS/data/DSD100/Mixtures/Test/017 - Girls Under Glass - We Feel Alright/remainingmix.wav'
p196
sg12
F317.28124700000001
sg13
I44100
sbg4
(g5
g6
NtRp197
(dp198
g9
I2
sg10
S'/home/ubuntu/AAS/data/DSD100/Sources/Test/017 - Girls Under Glass - We Feel Alright/drums.wav'
p199
sg12
F317.28124700000001
sg13
I44100
sbtp200
a(g4
(g5
g6
NtRp201
(dp202
g9
I2
sg10
S'/home/ubuntu/AAS/data/DSD100/Mixtures/Test/018 - Hollow Ground - Ill Fate/mixture.wav'
p203
sg12
F141.674104
sg13
I44100
sbg4
(g5
g6
NtRp204
(dp205
g9
I2
sg10
S'/home/ubuntu/AAS/data/DSD100/Mixtures/Test/018 - Hollow Ground - Ill Fate/remainingmix.wav'
p206
sg12
F141.674104
sg13
I44100
sbg4
(g5
g6
NtRp207
(dp208
g9
I2
sg10
S'/home/ubuntu/AAS/data/DSD100/Sources/Test/018 - Hollow Ground - Ill Fate/drums.wav'
p209
sg12
F141.674104
sg13
I44100
sbtp210
a(g4
(g5
g6
NtRp211
(dp212
g9
I2
sg10
S'/home/ubuntu/AAS/data/DSD100/Mixtures/Test/019 - James Elder & Mark M Thompson - The English Actor/mixture.wav'
p213
sg12
F205.47322
sg13
I44100
sbg4
(g5
g6
NtRp214
(dp215
g9
I2
sg10
S'/home/ubuntu/AAS/data/DSD100/Mixtures/Test/019 - James Elder & Mark M Thompson - The English Actor/remainingmix.wav'
p216
sg12
F205.47322
sg13
I44100
sbg4
(g5
g6
NtRp217
(dp218
g9
I2
sg10
S'/home/ubuntu/AAS/data/DSD100/Sources/Test/019 - James Elder & Mark M Thompson - The English Actor/drums.wav'
p219
sg12
F205.47322
sg13
I44100
sbtp220
a(g4
(g5
g6
NtRp221
(dp222
g9
I2
sg10
S'/home/ubuntu/AAS/data/DSD100/Mixtures/Test/020 - James May - Dont Let Go/mixture.wav'
p223
sg12
F242.14285699999999
sg13
I44100
sbg4
(g5
g6
NtRp224
(dp225
g9
I2
sg10
S'/home/ubuntu/AAS/data/DSD100/Mixtures/Test/020 - James May - Dont Let Go/remainingmix.wav'
p226
sg12
F242.14285699999999
sg13
I44100
sbg4
(g5
g6
NtRp227
(dp228
g9
I2
sg10
S'/home/ubuntu/AAS/data/DSD100/Sources/Test/020 - James May - Dont Let Go/drums.wav'
p229
sg12
F242.14285699999999
sg13
I44100
sbtp230
a(g4
(g5
g6
NtRp231
(dp232
g9
I2
sg10
S'/home/ubuntu/AAS/data/DSD100/Mixtures/Test/021 - James May - On The Line/mixture.wav'
p233
sg12
F256.272313
sg13
I44100
sbg4
(g5
g6
NtRp234
(dp235
g9
I2
sg10
S'/home/ubuntu/AAS/data/DSD100/Mixtures/Test/021 - James May - On The Line/remainingmix.wav'
p236
sg12
F256.272313
sg13
I44100
sbg4
(g5
g6
NtRp237
(dp238
g9
I2
sg10
S'/home/ubuntu/AAS/data/DSD100/Sources/Test/021 - James May - On The Line/drums.wav'
p239
sg12
F256.272313
sg13
I44100
sbtp240
a(g4
(g5
g6
NtRp241
(dp242
g9
I2
sg10
S'/home/ubuntu/AAS/data/DSD100/Mixtures/Test/030 - Patrick Talbot - A Reason To Leave/mixture.wav'
p243
sg12
F259.74553300000002
sg13
I44100
sbg4
(g5
g6
NtRp244
(dp245
g9
I2
sg10
S'/home/ubuntu/AAS/data/DSD100/Mixtures/Test/030 - Patrick Talbot - A Reason To Leave/remainingmix.wav'
p246
sg12
F259.74553300000002
sg13
I44100
sbg4
(g5
g6
NtRp247
(dp248
g9
I2
sg10
S'/home/ubuntu/AAS/data/DSD100/Sources/Test/030 - Patrick Talbot - A Reason To Leave/drums.wav'
p249
sg12
F259.74553300000002
sg13
I44100
sbtp250
a(g4
(g5
g6
NtRp251
(dp252
g9
I2
sg10
S'/home/ubuntu/AAS/data/DSD100/Mixtures/Test/039 - Swinging Steaks - Lost My Way/mixture.wav'
p253
sg12
F310.14734700000002
sg13
I44100
sbg4
(g5
g6
NtRp254
(dp255
g9
I2
sg10
S'/home/ubuntu/AAS/data/DSD100/Mixtures/Test/039 - Swinging Steaks - Lost My Way/remainingmix.wav'
p256
sg12
F310.14734700000002
sg13
I44100
sbg4
(g5
g6
NtRp257
(dp258
g9
I2
sg10
S'/home/ubuntu/AAS/data/DSD100/Sources/Test/039 - Swinging Steaks - Lost My Way/drums.wav'
p259
sg12
F310.14734700000002
sg13
I44100
sbtp260
a(g4
(g5
g6
NtRp261
(dp262
g9
I1
sg10
S'/home/ubuntu/AAS/data/capstone_data/sups/4/mix.wav'
p263
sg12
F240
sg13
I44100
sbg4
(g5
g6
NtRp264
(dp265
g9
I1
sg10
S'/home/ubuntu/AAS/data/capstone_data/sups/4/acc.wav'
p266
sg12
F240
sg13
I44100
sbg4
(g5
g6
NtRp267
(dp268
g9
I1
sg10
S'/home/ubuntu/AAS/data/capstone_data/sups/4/drums.wav'
p269
sg12
F240
sg13
I44100
sbtp270
a(g4
(g5
g6
NtRp271
(dp272
g9
I1
sg10
S'/home/ubuntu/AAS/data/capstone_data/sups/8/mix.wav'
p273
sg12
F146.28571428571428
sg13
I44100
sbg4
(g5
g6
NtRp274
(dp275
g9
I1
sg10
S'/home/ubuntu/AAS/data/capstone_data/sups/8/acc.wav'
p276
sg12
F146.28571428571428
sg13
I44100
sbg4
(g5
g6
NtRp277
(dp278
g9
I1
sg10
S'/home/ubuntu/AAS/data/capstone_data/sups/8/drums.wav'
p279
sg12
F146.28571428571428
sg13
I44100
sbtp280
a(g4
(g5
g6
NtRp281
(dp282
g9
I1
sg10
S'/home/ubuntu/AAS/data/capstone_data/sups/10/mix.wav'
p283
sg12
F139.35485260770974
sg13
I44100
sbg4
(g5
g6
NtRp284
(dp285
g9
I1
sg10
S'/home/ubuntu/AAS/data/capstone_data/sups/10/acc.wav'
p286
sg12
F139.35485260770974
sg13
I44100
sbg4
(g5
g6
NtRp287
(dp288
g9
I1
sg10
S'/home/ubuntu/AAS/data/capstone_data/sups/10/drums.wav'
p289
sg12
F139.35485260770974
sg13
I44100
sbtp290
asS'train_sup'
p291
(lp292
(g4
(g5
g6
NtRp293
(dp294
g9
I2
sg10
S'/home/ubuntu/AAS/data/DSD100/Mixtures/Dev/051 - AM Contra - Heart Peripheral/mixture.wav'
p295
sg12
F210.10576
sg13
I44100
sbg4
(g5
g6
NtRp296
(dp297
g9
I2
sg10
S'/home/ubuntu/AAS/data/DSD100/Mixtures/Dev/051 - AM Contra - Heart Peripheral/remainingmix.wav'
p298
sg12
F210.10576
sg13
I44100
sbg4
(g5
g6
NtRp299
(dp300
g9
I2
sg10
S'/home/ubuntu/AAS/data/DSD100/Sources/Dev/051 - AM Contra - Heart Peripheral/drums.wav'
p301
sg12
F210.10576
sg13
I44100
sbtp302
a(g4
(g5
g6
NtRp303
(dp304
g9
I2
sg10
S'/home/ubuntu/AAS/data/DSD100/Mixtures/Dev/052 - ANiMAL - Easy Tiger/mixture.wav'
p305
sg12
F205.65789100000001
sg13
I44100
sbg4
(g5
g6
NtRp306
(dp307
g9
I2
sg10
S'/home/ubuntu/AAS/data/DSD100/Mixtures/Dev/052 - ANiMAL - Easy Tiger/remainingmix.wav'
p308
sg12
F205.65789100000001
sg13
I44100
sbg4
(g5
g6
NtRp309
(dp310
g9
I2
sg10
S'/home/ubuntu/AAS/data/DSD100/Sources/Dev/052 - ANiMAL - Easy Tiger/drums.wav'
p311
sg12
F205.65789100000001
sg13
I44100
sbtp312
a(g4
(g5
g6
NtRp313
(dp314
g9
I2
sg10
S"/home/ubuntu/AAS/data/DSD100/Mixtures/Dev/053 - Actions - Devil's Words/mixture.wav"
p315
sg12
F196.80768699999999
sg13
I44100
sbg4
(g5
g6
NtRp316
(dp317
g9
I2
sg10
S"/home/ubuntu/AAS/data/DSD100/Mixtures/Dev/053 - Actions - Devil's Words/remainingmix.wav"
p318
sg12
F196.80768699999999
sg13
I44100
sbg4
(g5
g6
NtRp319
(dp320
g9
I2
sg10
S"/home/ubuntu/AAS/data/DSD100/Sources/Dev/053 - Actions - Devil's Words/drums.wav"
p321
sg12
F196.80768699999999
sg13
I44100
sbtp322
a(g4
(g5
g6
NtRp323
(dp324
g9
I2
sg10
S'/home/ubuntu/AAS/data/DSD100/Mixtures/Dev/054 - Actions - South Of The Water/mixture.wav'
p325
sg12
F176.80287999999999
sg13
I44100
sbg4
(g5
g6
NtRp326
(dp327
g9
I2
sg10
S'/home/ubuntu/AAS/data/DSD100/Mixtures/Dev/054 - Actions - South Of The Water/remainingmix.wav'
p328
sg12
F176.80287999999999
sg13
I44100
sbg4
(g5
g6
NtRp329
(dp330
g9
I2
sg10
S'/home/ubuntu/AAS/data/DSD100/Sources/Dev/054 - Actions - South Of The Water/drums.wav'
p331
sg12
F176.80287999999999
sg13
I44100
sbtp332
a(g4
(g5
g6
NtRp333
(dp334
g9
I2
sg10
S"/home/ubuntu/AAS/data/DSD100/Mixtures/Dev/055 - Angels In Amplifiers - I'm Alright/mixture.wav"
p335
sg12
F179.59374099999999
sg13
I44100
sbg4
(g5
g6
NtRp336
(dp337
g9
I2
sg10
S"/home/ubuntu/AAS/data/DSD100/Mixtures/Dev/055 - Angels In Amplifiers - I'm Alright/remainingmix.wav"
p338
sg12
F179.59374099999999
sg13
I44100
sbg4
(g5
g6
NtRp339
(dp340
g9
I2
sg10
S"/home/ubuntu/AAS/data/DSD100/Sources/Dev/055 - Angels In Amplifiers - I'm Alright/drums.wav"
p341
sg12
F179.59374099999999
sg13
I44100
sbtp342
a(g4
(g5
g6
NtRp343
(dp344
g9
I2
sg10
S'/home/ubuntu/AAS/data/DSD100/Mixtures/Dev/056 - Arise - Run Run Run/mixture.wav'
p345
sg12
F219.39285699999999
sg13
I44100
sbg4
(g5
g6
NtRp346
(dp347
g9
I2
sg10
S'/home/ubuntu/AAS/data/DSD100/Mixtures/Dev/056 - Arise - Run Run Run/remainingmix.wav'
p348
sg12
F219.39285699999999
sg13
I44100
sbg4
(g5
g6
NtRp349
(dp350
g9
I2
sg10
S'/home/ubuntu/AAS/data/DSD100/Sources/Dev/056 - Arise - Run Run Run/drums.wav'
p351
sg12
F219.39285699999999
sg13
I44100
sbtp352
a(g4
(g5
g6
NtRp353
(dp354
g9
I2
sg10
S'/home/ubuntu/AAS/data/DSD100/Mixtures/Dev/057 - BKS - Bulldozer/mixture.wav'
p355
sg12
F337.04018100000002
sg13
I44100
sbg4
(g5
g6
NtRp356
(dp357
g9
I2
sg10
S'/home/ubuntu/AAS/data/DSD100/Mixtures/Dev/057 - BKS - Bulldozer/remainingmix.wav'
p358
sg12
F337.04018100000002
sg13
I44100
sbg4
(g5
g6
NtRp359
(dp360
g9
I2
sg10
S'/home/ubuntu/AAS/data/DSD100/Sources/Dev/057 - BKS - Bulldozer/drums.wav'
p361
sg12
F337.04018100000002
sg13
I44100
sbtp362
a(g4
(g5
g6
NtRp363
(dp364
g9
I2
sg10
S"/home/ubuntu/AAS/data/DSD100/Mixtures/Dev/058 - Ben Carrigan - We'll Talk About It All Tonight/mixture.wav"
p365
sg12
F254.91070300000001
sg13
I44100
sbg4
(g5
g6
NtRp366
(dp367
g9
I2
sg10
S"/home/ubuntu/AAS/data/DSD100/Mixtures/Dev/058 - Ben Carrigan - We'll Talk About It All Tonight/remainingmix.wav"
p368
sg12
F254.91070300000001
sg13
I44100
sbg4
(g5
g6
NtRp369
(dp370
g9
I2
sg10
S"/home/ubuntu/AAS/data/DSD100/Sources/Dev/058 - Ben Carrigan - We'll Talk About It All Tonight/drums.wav"
p371
sg12
F254.91070300000001
sg13
I44100
sbtp372
a(g4
(g5
g6
NtRp373
(dp374
g9
I2
sg10
S'/home/ubuntu/AAS/data/DSD100/Mixtures/Dev/094 - Titanium - Haunted Age/mixture.wav'
p375
sg12
F248.28879800000001
sg13
I44100
sbg4
(g5
g6
NtRp376
(dp377
g9
I2
sg10
S'/home/ubuntu/AAS/data/DSD100/Mixtures/Dev/094 - Titanium - Haunted Age/remainingmix.wav'
p378
sg12
F248.28879800000001
sg13
I44100
sbg4
(g5
g6
NtRp379
(dp380
g9
I2
sg10
S'/home/ubuntu/AAS/data/DSD100/Sources/Dev/094 - Titanium - Haunted Age/drums.wav'
p381
sg12
F248.28879800000001
sg13
I44100
sbtp382
a(g4
(g5
g6
NtRp383
(dp384
g9
I2
sg10
S'/home/ubuntu/AAS/data/DSD100/Mixtures/Dev/095 - Traffic Experiment - Once More (With Feeling)/mixture.wav'
p385
sg12
F435.262585
sg13
I44100
sbg4
(g5
g6
NtRp386
(dp387
g9
I2
sg10
S'/home/ubuntu/AAS/data/DSD100/Mixtures/Dev/095 - Traffic Experiment - Once More (With Feeling)/remainingmix.wav'
p388
sg12
F435.262585
sg13
I44100
sbg4
(g5
g6
NtRp389
(dp390
g9
I2
sg10
S'/home/ubuntu/AAS/data/DSD100/Sources/Dev/095 - Traffic Experiment - Once More (With Feeling)/drums.wav'
p391
sg12
F435.262585
sg13
I44100
sbtp392
a(g4
(g5
g6
NtRp393
(dp394
g9
I2
sg10
S'/home/ubuntu/AAS/data/DSD100/Mixtures/Dev/096 - Triviul - Angelsaint/mixture.wav'
p395
sg12
F236.89922899999999
sg13
I44100
sbg4
(g5
g6
NtRp396
(dp397
g9
I2
sg10
S'/home/ubuntu/AAS/data/DSD100/Mixtures/Dev/096 - Triviul - Angelsaint/remainingmix.wav'
p398
sg12
F236.89922899999999
sg13
I44100
sbg4
(g5
g6
NtRp399
(dp400
g9
I2
sg10
S'/home/ubuntu/AAS/data/DSD100/Sources/Dev/096 - Triviul - Angelsaint/drums.wav'
p401
sg12
F236.89922899999999
sg13
I44100
sbtp402
a(g4
(g5
g6
NtRp403
(dp404
g9
I2
sg10
S'/home/ubuntu/AAS/data/DSD100/Mixtures/Dev/097 - Triviul feat. The Fiend - Widow/mixture.wav'
p405
sg12
F235.10968299999999
sg13
I44100
sbg4
(g5
g6
NtRp406
(dp407
g9
I2
sg10
S'/home/ubuntu/AAS/data/DSD100/Mixtures/Dev/097 - Triviul feat. The Fiend - Widow/remainingmix.wav'
p408
sg12
F235.10968299999999
sg13
I44100
sbg4
(g5
g6
NtRp409
(dp410
g9
I2
sg10
S'/home/ubuntu/AAS/data/DSD100/Sources/Dev/097 - Triviul feat. The Fiend - Widow/drums.wav'
p411
sg12
F235.10968299999999
sg13
I44100
sbtp412
a(g4
(g5
g6
NtRp413
(dp414
g9
I2
sg10
S'/home/ubuntu/AAS/data/DSD100/Mixtures/Dev/098 - Wall Of Death - Femme/mixture.wav'
p415
sg12
F239.11607699999999
sg13
I44100
sbg4
(g5
g6
NtRp416
(dp417
g9
I2
sg10
S'/home/ubuntu/AAS/data/DSD100/Mixtures/Dev/098 - Wall Of Death - Femme/remainingmix.wav'
p418
sg12
F239.11607699999999
sg13
I44100
sbg4
(g5
g6
NtRp419
(dp420
g9
I2
sg10
S'/home/ubuntu/AAS/data/DSD100/Sources/Dev/098 - Wall Of Death - Femme/drums.wav'
p421
sg12
F239.11607699999999
sg13
I44100
sbtp422
a(g4
(g5
g6
NtRp423
(dp424
g9
I2
sg10
S'/home/ubuntu/AAS/data/DSD100/Mixtures/Dev/099 - Young Griffo - Blood To Bone/mixture.wav'
p425
sg12
F254.583741
sg13
I44100
sbg4
(g5
g6
NtRp426
(dp427
g9
I2
sg10
S'/home/ubuntu/AAS/data/DSD100/Mixtures/Dev/099 - Young Griffo - Blood To Bone/remainingmix.wav'
p428
sg12
F254.583741
sg13
I44100
sbg4
(g5
g6
NtRp429
(dp430
g9
I2
sg10
S'/home/ubuntu/AAS/data/DSD100/Sources/Dev/099 - Young Griffo - Blood To Bone/drums.wav'
p431
sg12
F254.583741
sg13
I44100
sbtp432
a(g4
(g5
g6
NtRp433
(dp434
g9
I2
sg10
S'/home/ubuntu/AAS/data/DSD100/Mixtures/Dev/100 - Young Griffo - Pennies/mixture.wav'
p435
sg12
F277.99446699999999
sg13
I44100
sbg4
(g5
g6
NtRp436
(dp437
g9
I2
sg10
S'/home/ubuntu/AAS/data/DSD100/Mixtures/Dev/100 - Young Griffo - Pennies/remainingmix.wav'
p438
sg12
F277.99446699999999
sg13
I44100
sbg4
(g5
g6
NtRp439
(dp440
g9
I2
sg10
S'/home/ubuntu/AAS/data/DSD100/Sources/Dev/100 - Young Griffo - Pennies/drums.wav'
p441
sg12
F277.99446699999999
sg13
I44100
sbtp442
a(g4
(g5
g6
NtRp443
(dp444
g9
I2
sg10
S'/home/ubuntu/AAS/data/DSD100/Mixtures/Dev/084 - Secretariat - Borderline/mixture.wav'
p445
sg12
F286.84562399999999
sg13
I44100
sbg4
(g5
g6
NtRp446
(dp447
g9
I2
sg10
S'/home/ubuntu/AAS/data/DSD100/Mixtures/Dev/084 - Secretariat - Borderline/remainingmix.wav'
p448
sg12
F286.84562399999999
sg13
I44100
sbg4
(g5
g6
NtRp449
(dp450
g9
I2
sg10
S'/home/ubuntu/AAS/data/DSD100/Sources/Dev/084 - Secretariat - Borderline/drums.wav'
p451
sg12
F286.84562399999999
sg13
I44100
sbtp452
a(g4
(g5
g6
NtRp453
(dp454
g9
I2
sg10
S'/home/ubuntu/AAS/data/DSD100/Mixtures/Dev/085 - Side Effects Project - Sing With Me/mixture.wav'
p455
sg12
F243.68303900000001
sg13
I44100
sbg4
(g5
g6
NtRp456
(dp457
g9
I2
sg10
S'/home/ubuntu/AAS/data/DSD100/Mixtures/Dev/085 - Side Effects Project - Sing With Me/remainingmix.wav'
p458
sg12
F243.68303900000001
sg13
I44100
sbg4
(g5
g6
NtRp459
(dp460
g9
I2
sg10
S'/home/ubuntu/AAS/data/DSD100/Sources/Dev/085 - Side Effects Project - Sing With Me/drums.wav'
p461
sg12
F243.68303900000001
sg13
I44100
sbtp462
a(g4
(g5
g6
NtRp463
(dp464
g9
I2
sg10
S'/home/ubuntu/AAS/data/DSD100/Mixtures/Dev/086 - Skelpolu - Human Mistakes/mixture.wav'
p465
sg12
F324.68571400000002
sg13
I44100
sbg4
(g5
g6
NtRp466
(dp467
g9
I2
sg10
S'/home/ubuntu/AAS/data/DSD100/Mixtures/Dev/086 - Skelpolu - Human Mistakes/remainingmix.wav'
p468
sg12
F324.68571400000002
sg13
I44100
sbg4
(g5
g6
NtRp469
(dp470
g9
I2
sg10
S'/home/ubuntu/AAS/data/DSD100/Sources/Dev/086 - Skelpolu - Human Mistakes/drums.wav'
p471
sg12
F324.68571400000002
sg13
I44100
sbtp472
a(g4
(g5
g6
NtRp473
(dp474
g9
I2
sg10
S'/home/ubuntu/AAS/data/DSD100/Mixtures/Dev/087 - Skelpolu - Together Alone/mixture.wav'
p475
sg12
F326.000023
sg13
I44100
sbg4
(g5
g6
NtRp476
(dp477
g9
I2
sg10
S'/home/ubuntu/AAS/data/DSD100/Mixtures/Dev/087 - Skelpolu - Together Alone/remainingmix.wav'
p478
sg12
F326.000023
sg13
I44100
sbg4
(g5
g6
NtRp479
(dp480
g9
I2
sg10
S'/home/ubuntu/AAS/data/DSD100/Sources/Dev/087 - Skelpolu - Together Alone/drums.wav'
p481
sg12
F326.000023
sg13
I44100
sbtp482
a(g4
(g5
g6
NtRp483
(dp484
g9
I2
sg10
S'/home/ubuntu/AAS/data/DSD100/Mixtures/Dev/088 - Speak Softly - Like Horses/mixture.wav'
p485
sg12
F312.66666700000002
sg13
I44100
sbg4
(g5
g6
NtRp486
(dp487
g9
I2
sg10
S'/home/ubuntu/AAS/data/DSD100/Mixtures/Dev/088 - Speak Softly - Like Horses/remainingmix.wav'
p488
sg12
F312.66666700000002
sg13
I44100
sbg4
(g5
g6
NtRp489
(dp490
g9
I2
sg10
S'/home/ubuntu/AAS/data/DSD100/Sources/Dev/088 - Speak Softly - Like Horses/drums.wav'
p491
sg12
F312.66666700000002
sg13
I44100
sbtp492
a(g4
(g5
g6
NtRp493
(dp494
g9
I2
sg10
S'/home/ubuntu/AAS/data/DSD100/Mixtures/Dev/089 - St Vitus - Word Gets Around/mixture.wav'
p495
sg12
F247.20981900000001
sg13
I44100
sbg4
(g5
g6
NtRp496
(dp497
g9
I2
sg10
S'/home/ubuntu/AAS/data/DSD100/Mixtures/Dev/089 - St Vitus - Word Gets Around/remainingmix.wav'
p498
sg12
F247.20981900000001
sg13
I44100
sbg4
(g5
g6
NtRp499
(dp500
g9
I2
sg10
S'/home/ubuntu/AAS/data/DSD100/Sources/Dev/089 - St Vitus - Word Gets Around/drums.wav'
p501
sg12
F247.20981900000001
sg13
I44100
sbtp502
a(g4
(g5
g6
NtRp503
(dp504
g9
I2
sg10
S'/home/ubuntu/AAS/data/DSD100/Mixtures/Dev/090 - The Doppler Shift - Atrophy/mixture.wav'
p505
sg12
F331.44197300000002
sg13
I44100
sbg4
(g5
g6
NtRp506
(dp507
g9
I2
sg10
S'/home/ubuntu/AAS/data/DSD100/Mixtures/Dev/090 - The Doppler Shift - Atrophy/remainingmix.wav'
p508
sg12
F331.44197300000002
sg13
I44100
sbg4
(g5
g6
NtRp509
(dp510
g9
I2
sg10
S'/home/ubuntu/AAS/data/DSD100/Sources/Dev/090 - The Doppler Shift - Atrophy/drums.wav'
p511
sg12
F331.44197300000002
sg13
I44100
sbtp512
a(g4
(g5
g6
NtRp513
(dp514
g9
I2
sg10
S'/home/ubuntu/AAS/data/DSD100/Mixtures/Dev/091 - The Long Wait - Dark Horses/mixture.wav'
p515
sg12
F305.72093000000001
sg13
I44100
sbg4
(g5
g6
NtRp516
(dp517
g9
I2
sg10
S'/home/ubuntu/AAS/data/DSD100/Mixtures/Dev/091 - The Long Wait - Dark Horses/remainingmix.wav'
p518
sg12
F305.72093000000001
sg13
I44100
sbg4
(g5
g6
NtRp519
(dp520
g9
I2
sg10
S'/home/ubuntu/AAS/data/DSD100/Sources/Dev/091 - The Long Wait - Dark Horses/drums.wav'
p521
sg12
F305.72093000000001
sg13
I44100
sbtp522
a(g4
(g5
g6
NtRp523
(dp524
g9
I2
sg10
S'/home/ubuntu/AAS/data/DSD100/Mixtures/Dev/092 - The Sunshine Garcia Band - For I Am The Moon/mixture.wav'
p525
sg12
F320.29666700000001
sg13
I44100
sbg4
(g5
g6
NtRp526
(dp527
g9
I2
sg10
S'/home/ubuntu/AAS/data/DSD100/Mixtures/Dev/092 - The Sunshine Garcia Band - For I Am The Moon/remainingmix.wav'
p528
sg12
F320.29666700000001
sg13
I44100
sbg4
(g5
g6
NtRp529
(dp530
g9
I2
sg10
S'/home/ubuntu/AAS/data/DSD100/Sources/Dev/092 - The Sunshine Garcia Band - For I Am The Moon/drums.wav'
p531
sg12
F320.29666700000001
sg13
I44100
sbtp532
a(g4
(g5
g6
NtRp533
(dp534
g9
I2
sg10
S"/home/ubuntu/AAS/data/DSD100/Mixtures/Dev/076 - Little Chicago's Finest - My Own/mixture.wav"
p535
sg12
F281.61160999999998
sg13
I44100
sbg4
(g5
g6
NtRp536
(dp537
g9
I2
sg10
S"/home/ubuntu/AAS/data/DSD100/Mixtures/Dev/076 - Little Chicago's Finest - My Own/remainingmix.wav"
p538
sg12
F281.61160999999998
sg13
I44100
sbg4
(g5
g6
NtRp539
(dp540
g9
I2
sg10
S"/home/ubuntu/AAS/data/DSD100/Sources/Dev/076 - Little Chicago's Finest - My Own/drums.wav"
p541
sg12
F281.61160999999998
sg13
I44100
sbtp542
a(g4
(g5
g6
NtRp543
(dp544
g9
I2
sg10
S'/home/ubuntu/AAS/data/DSD100/Mixtures/Dev/077 - Lyndsey Ollard - Catching Up/mixture.wav'
p545
sg12
F227.42857100000001
sg13
I44100
sbg4
(g5
g6
NtRp546
(dp547
g9
I2
sg10
S'/home/ubuntu/AAS/data/DSD100/Mixtures/Dev/077 - Lyndsey Ollard - Catching Up/remainingmix.wav'
p548
sg12
F227.42857100000001
sg13
I44100
sbg4
(g5
g6
NtRp549
(dp550
g9
I2
sg10
S'/home/ubuntu/AAS/data/DSD100/Sources/Dev/077 - Lyndsey Ollard - Catching Up/drums.wav'
p551
sg12
F227.42857100000001
sg13
I44100
sbtp552
a(g4
(g5
g6
NtRp553
(dp554
g9
I2
sg10
S'/home/ubuntu/AAS/data/DSD100/Mixtures/Dev/078 - Moosmusic - Big Dummy Shake/mixture.wav'
p555
sg12
F198.85714300000001
sg13
I44100
sbg4
(g5
g6
NtRp556
(dp557
g9
I2
sg10
S'/home/ubuntu/AAS/data/DSD100/Mixtures/Dev/078 - Moosmusic - Big Dummy Shake/remainingmix.wav'
p558
sg12
F198.85714300000001
sg13
I44100
sbg4
(g5
g6
NtRp559
(dp560
g9
I2
sg10
S'/home/ubuntu/AAS/data/DSD100/Sources/Dev/078 - Moosmusic - Big Dummy Shake/drums.wav'
p561
sg12
F198.85714300000001
sg13
I44100
sbtp562
a(g4
(g5
g6
NtRp563
(dp564
g9
I2
sg10
S'/home/ubuntu/AAS/data/DSD100/Mixtures/Dev/079 - Mu - Too Bright/mixture.wav'
p565
sg12
F272.16516999999999
sg13
I44100
sbg4
(g5
g6
NtRp566
(dp567
g9
I2
sg10
S'/home/ubuntu/AAS/data/DSD100/Mixtures/Dev/079 - Mu - Too Bright/remainingmix.wav'
p568
sg12
F272.16516999999999
sg13
I44100
sbg4
(g5
g6
NtRp569
(dp570
g9
I2
sg10
S'/home/ubuntu/AAS/data/DSD100/Sources/Dev/079 - Mu - Too Bright/drums.wav'
p571
sg12
F272.16516999999999
sg13
I44100
sbtp572
a(g4
(g5
g6
NtRp573
(dp574
g9
I2
sg10
S'/home/ubuntu/AAS/data/DSD100/Mixtures/Dev/080 - North To Alaska - All The Same/mixture.wav'
p575
sg12
F248.14285699999999
sg13
I44100
sbg4
(g5
g6
NtRp576
(dp577
g9
I2
sg10
S'/home/ubuntu/AAS/data/DSD100/Mixtures/Dev/080 - North To Alaska - All The Same/remainingmix.wav'
p578
sg12
F248.14285699999999
sg13
I44100
sbg4
(g5
g6
NtRp579
(dp580
g9
I2
sg10
S'/home/ubuntu/AAS/data/DSD100/Sources/Dev/080 - North To Alaska - All The Same/drums.wav'
p581
sg12
F248.14285699999999
sg13
I44100
sbtp582
a(g4
(g5
g6
NtRp583
(dp584
g9
I2
sg10
S'/home/ubuntu/AAS/data/DSD100/Mixtures/Dev/081 - Patrick Talbot - Set Me Free/mixture.wav'
p585
sg12
F289.98213199999998
sg13
I44100
sbg4
(g5
g6
NtRp586
(dp587
g9
I2
sg10
S'/home/ubuntu/AAS/data/DSD100/Mixtures/Dev/081 - Patrick Talbot - Set Me Free/remainingmix.wav'
p588
sg12
F289.98213199999998
sg13
I44100
sbg4
(g5
g6
NtRp589
(dp590
g9
I2
sg10
S'/home/ubuntu/AAS/data/DSD100/Sources/Dev/081 - Patrick Talbot - Set Me Free/drums.wav'
p591
sg12
F289.98213199999998
sg13
I44100
sbtp592
a(g4
(g5
g6
NtRp593
(dp594
g9
I2
sg10
S'/home/ubuntu/AAS/data/DSD100/Mixtures/Dev/082 - Punkdisco - Oral Hygiene/mixture.wav'
p595
sg12
F221.598209
sg13
I44100
sbg4
(g5
g6
NtRp596
(dp597
g9
I2
sg10
S'/home/ubuntu/AAS/data/DSD100/Mixtures/Dev/082 - Punkdisco - Oral Hygiene/remainingmix.wav'
p598
sg12
F221.598209
sg13
I44100
sbg4
(g5
g6
NtRp599
(dp600
g9
I2
sg10
S'/home/ubuntu/AAS/data/DSD100/Sources/Dev/082 - Punkdisco - Oral Hygiene/drums.wav'
p601
sg12
F221.598209
sg13
I44100
sbtp602
a(g4
(g5
g6
NtRp603
(dp604
g9
I2
sg10
S'/home/ubuntu/AAS/data/DSD100/Mixtures/Dev/068 - Giselle - Moss/mixture.wav'
p605
sg12
F201.88838999999999
sg13
I44100
sbg4
(g5
g6
NtRp606
(dp607
g9
I2
sg10
S'/home/ubuntu/AAS/data/DSD100/Mixtures/Dev/068 - Giselle - Moss/remainingmix.wav'
p608
sg12
F201.88838999999999
sg13
I44100
sbg4
(g5
g6
NtRp609
(dp610
g9
I2
sg10
S'/home/ubuntu/AAS/data/DSD100/Sources/Dev/068 - Giselle - Moss/drums.wav'
p611
sg12
F201.88838999999999
sg13
I44100
sbtp612
a(g4
(g5
g6
NtRp613
(dp614
g9
I2
sg10
S'/home/ubuntu/AAS/data/DSD100/Mixtures/Dev/069 - Hollow Ground - Left Blind/mixture.wav'
p615
sg12
F159.29018099999999
sg13
I44100
sbg4
(g5
g6
NtRp616
(dp617
g9
I2
sg10
S'/home/ubuntu/AAS/data/DSD100/Mixtures/Dev/069 - Hollow Ground - Left Blind/remainingmix.wav'
p618
sg12
F159.29018099999999
sg13
I44100
sbg4
(g5
g6
NtRp619
(dp620
g9
I2
sg10
S'/home/ubuntu/AAS/data/DSD100/Sources/Dev/069 - Hollow Ground - Left Blind/drums.wav'
p621
sg12
F159.29018099999999
sg13
I44100
sbtp622
a(g4
(g5
g6
NtRp623
(dp624
g9
I2
sg10
S'/home/ubuntu/AAS/data/DSD100/Mixtures/Dev/070 - James May - All Souls Moon/mixture.wav'
p625
sg12
F221.04464899999999
sg13
I44100
sbg4
(g5
g6
NtRp626
(dp627
g9
I2
sg10
S'/home/ubuntu/AAS/data/DSD100/Mixtures/Dev/070 - James May - All Souls Moon/remainingmix.wav'
p628
sg12
F221.04464899999999
sg13
I44100
sbg4
(g5
g6
NtRp629
(dp630
g9
I2
sg10
S'/home/ubuntu/AAS/data/DSD100/Sources/Dev/070 - James May - All Souls Moon/drums.wav'
p631
sg12
F221.04464899999999
sg13
I44100
sbtp632
a(g4
(g5
g6
NtRp633
(dp634
g9
I2
sg10
S'/home/ubuntu/AAS/data/DSD100/Mixtures/Dev/071 - James May - If You Say/mixture.wav'
p635
sg12
F258.5
sg13
I44100
sbg4
(g5
g6
NtRp636
(dp637
g9
I2
sg10
S'/home/ubuntu/AAS/data/DSD100/Mixtures/Dev/071 - James May - If You Say/remainingmix.wav'
p638
sg12
F258.5
sg13
I44100
sbg4
(g5
g6
NtRp639
(dp640
g9
I2
sg10
S'/home/ubuntu/AAS/data/DSD100/Sources/Dev/071 - James May - If You Say/drums.wav'
p641
sg12
F258.5
sg13
I44100
sbtp642
a(g4
(g5
g6
NtRp643
(dp644
g9
I2
sg10
S'/home/ubuntu/AAS/data/DSD100/Mixtures/Dev/072 - Jay Menon - Through My Eyes/mixture.wav'
p645
sg12
F253.35714300000001
sg13
I44100
sbg4
(g5
g6
NtRp646
(dp647
g9
I2
sg10
S'/home/ubuntu/AAS/data/DSD100/Mixtures/Dev/072 - Jay Menon - Through My Eyes/remainingmix.wav'
p648
sg12
F253.35714300000001
sg13
I44100
sbg4
(g5
g6
NtRp649
(dp650
g9
I2
sg10
S'/home/ubuntu/AAS/data/DSD100/Sources/Dev/072 - Jay Menon - Through My Eyes/drums.wav'
p651
sg12
F253.35714300000001
sg13
I44100
sbtp652
a(g4
(g5
g6
NtRp653
(dp654
g9
I2
sg10
S'/home/ubuntu/AAS/data/DSD100/Mixtures/Dev/073 - Johnny Lokke - Whisper To A Scream/mixture.wav'
p655
sg12
F255.51786799999999
sg13
I44100
sbg4
(g5
g6
NtRp656
(dp657
g9
I2
sg10
S'/home/ubuntu/AAS/data/DSD100/Mixtures/Dev/073 - Johnny Lokke - Whisper To A Scream/remainingmix.wav'
p658
sg12
F255.51786799999999
sg13
I44100
sbg4
(g5
g6
NtRp659
(dp660
g9
I2
sg10
S'/home/ubuntu/AAS/data/DSD100/Sources/Dev/073 - Johnny Lokke - Whisper To A Scream/drums.wav'
p661
sg12
F255.51786799999999
sg13
I44100
sbtp662
a(g4
(g5
g6
NtRp663
(dp664
g9
I2
sg10
S"/home/ubuntu/AAS/data/DSD100/Mixtures/Dev/074 - Juliet's Rescue - Heartbeats/mixture.wav"
p665
sg12
F267.651791
sg13
I44100
sbg4
(g5
g6
NtRp666
(dp667
g9
I2
sg10
S"/home/ubuntu/AAS/data/DSD100/Mixtures/Dev/074 - Juliet's Rescue - Heartbeats/remainingmix.wav"
p668
sg12
F267.651791
sg13
I44100
sbg4
(g5
g6
NtRp669
(dp670
g9
I2
sg10
S"/home/ubuntu/AAS/data/DSD100/Sources/Dev/074 - Juliet's Rescue - Heartbeats/drums.wav"
p671
sg12
F267.651791
sg13
I44100
sbtp672
a(g4
(g5
g6
NtRp673
(dp674
g9
I2
sg10
S'/home/ubuntu/AAS/data/DSD100/Mixtures/Dev/059 - Black Bloc - If You Want Success/mixture.wav'
p675
sg12
F398.73215399999998
sg13
I44100
sbg4
(g5
g6
NtRp676
(dp677
g9
I2
sg10
S'/home/ubuntu/AAS/data/DSD100/Mixtures/Dev/059 - Black Bloc - If You Want Success/remainingmix.wav'
p678
sg12
F398.73215399999998
sg13
I44100
sbg4
(g5
g6
NtRp679
(dp680
g9
I2
sg10
S'/home/ubuntu/AAS/data/DSD100/Sources/Dev/059 - Black Bloc - If You Want Success/drums.wav'
p681
sg12
F398.73215399999998
sg13
I44100
sbtp682
a(g4
(g5
g6
NtRp683
(dp684
g9
I2
sg10
S'/home/ubuntu/AAS/data/DSD100/Mixtures/Dev/067 - Georgia Wonder - Siren/mixture.wav'
p685
sg12
F430.37501099999997
sg13
I44100
sbg4
(g5
g6
NtRp686
(dp687
g9
I2
sg10
S'/home/ubuntu/AAS/data/DSD100/Mixtures/Dev/067 - Georgia Wonder - Siren/remainingmix.wav'
p688
sg12
F430.37501099999997
sg13
I44100
sbg4
(g5
g6
NtRp689
(dp690
g9
I2
sg10
S'/home/ubuntu/AAS/data/DSD100/Sources/Dev/067 - Georgia Wonder - Siren/drums.wav'
p691
sg12
F430.37501099999997
sg13
I44100
sbtp692
a(g4
(g5
g6
NtRp693
(dp694
g9
I2
sg10
S'/home/ubuntu/AAS/data/DSD100/Mixtures/Dev/075 - Leaf - Summerghost/mixture.wav'
p695
sg12
F232
sg13
I44100
sbg4
(g5
g6
NtRp696
(dp697
g9
I2
sg10
S'/home/ubuntu/AAS/data/DSD100/Mixtures/Dev/075 - Leaf - Summerghost/remainingmix.wav'
p698
sg12
F232
sg13
I44100
sbg4
(g5
g6
NtRp699
(dp700
g9
I2
sg10
S'/home/ubuntu/AAS/data/DSD100/Sources/Dev/075 - Leaf - Summerghost/drums.wav'
p701
sg12
F232
sg13
I44100
sbtp702
a(g4
(g5
g6
NtRp703
(dp704
g9
I2
sg10
S'/home/ubuntu/AAS/data/DSD100/Mixtures/Dev/083 - Remember December - C U Next Time/mixture.wav'
p705
sg12
F242.713469
sg13
I44100
sbg4
(g5
g6
NtRp706
(dp707
g9
I2
sg10
S'/home/ubuntu/AAS/data/DSD100/Mixtures/Dev/083 - Remember December - C U Next Time/remainingmix.wav'
p708
sg12
F242.713469
sg13
I44100
sbg4
(g5
g6
NtRp709
(dp710
g9
I2
sg10
S'/home/ubuntu/AAS/data/DSD100/Sources/Dev/083 - Remember December - C U Next Time/drums.wav'
p711
sg12
F242.713469
sg13
I44100
sbtp712
a(g4
(g5
g6
NtRp713
(dp714
g9
I2
sg10
S'/home/ubuntu/AAS/data/DSD100/Mixtures/Dev/093 - Tim Taler - Stalker/mixture.wav'
p715
sg12
F237.818186
sg13
I44100
sbg4
(g5
g6
NtRp716
(dp717
g9
I2
sg10
S'/home/ubuntu/AAS/data/DSD100/Mixtures/Dev/093 - Tim Taler - Stalker/remainingmix.wav'
p718
sg12
F237.818186
sg13
I44100
sbg4
(g5
g6
NtRp719
(dp720
g9
I2
sg10
S'/home/ubuntu/AAS/data/DSD100/Sources/Dev/093 - Tim Taler - Stalker/drums.wav'
p721
sg12
F237.818186
sg13
I44100
sbtp722
a(g4
(g5
g6
NtRp723
(dp724
g9
I2
sg10
S'/home/ubuntu/AAS/data/DSD100/Mixtures/Dev/060 - Buitraker - Revo X/mixture.wav'
p725
sg12
F275.825896
sg13
I44100
sbg4
(g5
g6
NtRp726
(dp727
g9
I2
sg10
S'/home/ubuntu/AAS/data/DSD100/Mixtures/Dev/060 - Buitraker - Revo X/remainingmix.wav'
p728
sg12
F275.825896
sg13
I44100
sbg4
(g5
g6
NtRp729
(dp730
g9
I2
sg10
S'/home/ubuntu/AAS/data/DSD100/Sources/Dev/060 - Buitraker - Revo X/drums.wav'
p731
sg12
F275.825896
sg13
I44100
sbtp732
a(g4
(g5
g6
NtRp733
(dp734
g9
I2
sg10
S'/home/ubuntu/AAS/data/DSD100/Mixtures/Dev/061 - Chris Durban - Celebrate/mixture.wav'
p735
sg12
F301.78571399999998
sg13
I44100
sbg4
(g5
g6
NtRp736
(dp737
g9
I2
sg10
S'/home/ubuntu/AAS/data/DSD100/Mixtures/Dev/061 - Chris Durban - Celebrate/remainingmix.wav'
p738
sg12
F301.78571399999998
sg13
I44100
sbg4
(g5
g6
NtRp739
(dp740
g9
I2
sg10
S'/home/ubuntu/AAS/data/DSD100/Sources/Dev/061 - Chris Durban - Celebrate/drums.wav'
p741
sg12
F301.78571399999998
sg13
I44100
sbtp742
a(g4
(g5
g6
NtRp743
(dp744
g9
I2
sg10
S'/home/ubuntu/AAS/data/DSD100/Mixtures/Dev/062 - Cristina Vane - So Easy/mixture.wav'
p745
sg12
F254.13392300000001
sg13
I44100
sbg4
(g5
g6
NtRp746
(dp747
g9
I2
sg10
S'/home/ubuntu/AAS/data/DSD100/Mixtures/Dev/062 - Cristina Vane - So Easy/remainingmix.wav'
p748
sg12
F254.13392300000001
sg13
I44100
sbg4
(g5
g6
NtRp749
(dp750
g9
I2
sg10
S'/home/ubuntu/AAS/data/DSD100/Sources/Dev/062 - Cristina Vane - So Easy/drums.wav'
p751
sg12
F254.13392300000001
sg13
I44100
sbtp752
a(g4
(g5
g6
NtRp753
(dp754
g9
I2
sg10
S'/home/ubuntu/AAS/data/DSD100/Mixtures/Dev/063 - Detsky Sad - Walkie Talkie/mixture.wav'
p755
sg12
F190.48213200000001
sg13
I44100
sbg4
(g5
g6
NtRp756
(dp757
g9
I2
sg10
S'/home/ubuntu/AAS/data/DSD100/Mixtures/Dev/063 - Detsky Sad - Walkie Talkie/remainingmix.wav'
p758
sg12
F190.48213200000001
sg13
I44100
sbg4
(g5
g6
NtRp759
(dp760
g9
I2
sg10
S'/home/ubuntu/AAS/data/DSD100/Sources/Dev/063 - Detsky Sad - Walkie Talkie/drums.wav'
p761
sg12
F190.48213200000001
sg13
I44100
sbtp762
a(g4
(g5
g6
NtRp763
(dp764
g9
I2
sg10
S'/home/ubuntu/AAS/data/DSD100/Mixtures/Dev/064 - Enda Reilly - Cur An Long Ag Seol/mixture.wav'
p765
sg12
F186.99553299999999
sg13
I44100
sbg4
(g5
g6
NtRp766
(dp767
g9
I2
sg10
S'/home/ubuntu/AAS/data/DSD100/Mixtures/Dev/064 - Enda Reilly - Cur An Long Ag Seol/remainingmix.wav'
p768
sg12
F186.99553299999999
sg13
I44100
sbg4
(g5
g6
NtRp769
(dp770
g9
I2
sg10
S'/home/ubuntu/AAS/data/DSD100/Sources/Dev/064 - Enda Reilly - Cur An Long Ag Seol/drums.wav'
p771
sg12
F186.99553299999999
sg13
I44100
sbtp772
a(g4
(g5
g6
NtRp773
(dp774
g9
I2
sg10
S'/home/ubuntu/AAS/data/DSD100/Mixtures/Dev/065 - Fergessen - Nos Palpitants/mixture.wav'
p775
sg12
F198.41070300000001
sg13
I44100
sbg4
(g5
g6
NtRp776
(dp777
g9
I2
sg10
S'/home/ubuntu/AAS/data/DSD100/Mixtures/Dev/065 - Fergessen - Nos Palpitants/remainingmix.wav'
p778
sg12
F198.41070300000001
sg13
I44100
sbg4
(g5
g6
NtRp779
(dp780
g9
I2
sg10
S'/home/ubuntu/AAS/data/DSD100/Sources/Dev/065 - Fergessen - Nos Palpitants/drums.wav'
p781
sg12
F198.41070300000001
sg13
I44100
sbtp782
a(g4
(g5
g6
NtRp783
(dp784
g9
I2
sg10
S'/home/ubuntu/AAS/data/DSD100/Mixtures/Dev/066 - Flags - 54/mixture.wav'
p785
sg12
F315.34374100000002
sg13
I44100
sbg4
(g5
g6
NtRp786
(dp787
g9
I2
sg10
S'/home/ubuntu/AAS/data/DSD100/Mixtures/Dev/066 - Flags - 54/remainingmix.wav'
p788
sg12
F315.34374100000002
sg13
I44100
sbg4
(g5
g6
NtRp789
(dp790
g9
I2
sg10
S'/home/ubuntu/AAS/data/DSD100/Sources/Dev/066 - Flags - 54/drums.wav'
p791
sg12
F315.34374100000002
sg13
I44100
sbtp792
a(g4
(g5
g6
NtRp793
(dp794
g9
I1
sg10
S'/home/ubuntu/AAS/data/capstone_data/sups/1/mix.wav'
p795
sg12
F184.6156462585034
sg13
I44100
sbg4
(g5
g6
NtRp796
(dp797
g9
I1
sg10
S'/home/ubuntu/AAS/data/capstone_data/sups/1/acc.wav'
p798
sg12
F184.6156462585034
sg13
I44100
sbg4
(g5
g6
NtRp799
(dp800
g9
I1
sg10
S'/home/ubuntu/AAS/data/capstone_data/sups/1/drums.wav'
p801
sg12
F184.6156462585034
sg13
I44100
sbtp802
a(g4
(g5
g6
NtRp803
(dp804
g9
I1
sg10
S'/home/ubuntu/AAS/data/capstone_data/sups/3/mix.wav'
p805
sg12
F445
sg13
I44100
sbg4
(g5
g6
NtRp806
(dp807
g9
I1
sg10
S'/home/ubuntu/AAS/data/capstone_data/sups/3/acc.wav'
p808
sg12
F445
sg13
I44100
sbg4
(g5
g6
NtRp809
(dp810
g9
I1
sg10
S'/home/ubuntu/AAS/data/capstone_data/sups/3/drums.wav'
p811
sg12
F445
sg13
I44100
sbtp812
a(g4
(g5
g6
NtRp813
(dp814
g9
I1
sg10
S'/home/ubuntu/AAS/data/capstone_data/sups/5/mix.wav'
p815
sg12
F248.47058956916101
sg13
I44100
sbg4
(g5
g6
NtRp816
(dp817
g9
I1
sg10
S'/home/ubuntu/AAS/data/capstone_data/sups/5/acc.wav'
p818
sg12
F248.47058956916101
sg13
I44100
sbg4
(g5
g6
NtRp819
(dp820
g9
I1
sg10
S'/home/ubuntu/AAS/data/capstone_data/sups/5/drums.wav'
p821
sg12
F248.47058956916101
sg13
I44100
sbtp822
a(g4
(g5
g6
NtRp823
(dp824
g9
I1
sg10
S'/home/ubuntu/AAS/data/capstone_data/sups/7/mix.wav'
p825
sg12
F194.28571428571428
sg13
I44100
sbg4
(g5
g6
NtRp826
(dp827
g9
I1
sg10
S'/home/ubuntu/AAS/data/capstone_data/sups/7/acc.wav'
p828
sg12
F194.28571428571428
sg13
I44100
sbg4
(g5
g6
NtRp829
(dp830
g9
I1
sg10
S'/home/ubuntu/AAS/data/capstone_data/sups/7/drums.wav'
p831
sg12
F194.28571428571428
sg13
I44100
sbtp832
a(g4
(g5
g6
NtRp833
(dp834
g9
I1
sg10
S'/home/ubuntu/AAS/data/capstone_data/sups/9/mix.wav'
p835
sg12
F11.428571428571429
sg13
I44100
sbg4
(g5
g6
NtRp836
(dp837
g9
I1
sg10
S'/home/ubuntu/AAS/data/capstone_data/sups/9/acc.wav'
p838
sg12
F11.428571428571429
sg13
I44100
sbg4
(g5
g6
NtRp839
(dp840
g9
I1
sg10
S'/home/ubuntu/AAS/data/capstone_data/sups/9/drums.wav'
p841
sg12
F11.428571428571429
sg13
I44100
sbtp842
a(g4
(g5
g6
NtRp843
(dp844
g9
I1
sg10
S'/home/ubuntu/AAS/data/capstone_data/sups/11/mix.wav'
p845
sg12
F302.22222222222223
sg13
I44100
sbg4
(g5
g6
NtRp846
(dp847
g9
I1
sg10
S'/home/ubuntu/AAS/data/capstone_data/sups/11/acc.wav'
p848
sg12
F302.22222222222223
sg13
I44100
sbg4
(g5
g6
NtRp849
(dp850
g9
I1
sg10
S'/home/ubuntu/AAS/data/capstone_data/sups/11/drums.wav'
p851
sg12
F302.22222222222223
sg13
I44100
sbtp852
asS'valid'
p853
(lp854
(g4
(g5
g6
NtRp855
(dp856
g9
I2
sg10
S'/home/ubuntu/AAS/data/DSD100/Mixtures/Test/001 - ANiMAL - Clinic A/mixture.wav'
p857
sg12
F238.049116
sg13
I44100
sbg4
(g5
g6
NtRp858
(dp859
g9
I2
sg10
S'/home/ubuntu/AAS/data/DSD100/Mixtures/Test/001 - ANiMAL - Clinic A/remainingmix.wav'
p860
sg12
F238.049116
sg13
I44100
sbg4
(g5
g6
NtRp861
(dp862
g9
I2
sg10
S'/home/ubuntu/AAS/data/DSD100/Sources/Test/001 - ANiMAL - Clinic A/drums.wav'
p863
sg12
F238.049116
sg13
I44100
sbtp864
a(g4
(g5
g6
NtRp865
(dp866
g9
I2
sg10
S'/home/ubuntu/AAS/data/DSD100/Mixtures/Test/002 - ANiMAL - Rockshow/mixture.wav'
p867
sg12
F165.696417
sg13
I44100
sbg4
(g5
g6
NtRp868
(dp869
g9
I2
sg10
S'/home/ubuntu/AAS/data/DSD100/Mixtures/Test/002 - ANiMAL - Rockshow/remainingmix.wav'
p870
sg12
F165.696417
sg13
I44100
sbg4
(g5
g6
NtRp871
(dp872
g9
I2
sg10
S'/home/ubuntu/AAS/data/DSD100/Sources/Test/002 - ANiMAL - Rockshow/drums.wav'
p873
sg12
F165.696417
sg13
I44100
sbtp874
a(g4
(g5
g6
NtRp875
(dp876
g9
I2
sg10
S'/home/ubuntu/AAS/data/DSD100/Mixtures/Test/003 - Actions - One Minute Smile/mixture.wav'
p877
sg12
F163.57210900000001
sg13
I44100
sbg4
(g5
g6
NtRp878
(dp879
g9
I2
sg10
S'/home/ubuntu/AAS/data/DSD100/Mixtures/Test/003 - Actions - One Minute Smile/remainingmix.wav'
p880
sg12
F163.57210900000001
sg13
I44100
sbg4
(g5
g6
NtRp881
(dp882
g9
I2
sg10
S'/home/ubuntu/AAS/data/DSD100/Sources/Test/003 - Actions - One Minute Smile/drums.wav'
p883
sg12
F163.57210900000001
sg13
I44100
sbtp884
a(g4
(g5
g6
NtRp885
(dp886
g9
I2
sg10
S'/home/ubuntu/AAS/data/DSD100/Mixtures/Test/004 - Al James - Schoolboy Facination/mixture.wav'
p887
sg12
F200.52678
sg13
I44100
sbg4
(g5
g6
NtRp888
(dp889
g9
I2
sg10
S'/home/ubuntu/AAS/data/DSD100/Mixtures/Test/004 - Al James - Schoolboy Facination/remainingmix.wav'
p890
sg12
F200.52678
sg13
I44100
sbg4
(g5
g6
NtRp891
(dp892
g9
I2
sg10
S'/home/ubuntu/AAS/data/DSD100/Sources/Test/004 - Al James - Schoolboy Facination/drums.wav'
p893
sg12
F200.52678
sg13
I44100
sbtp894
a(g4
(g5
g6
NtRp895
(dp896
g9
I2
sg10
S'/home/ubuntu/AAS/data/DSD100/Mixtures/Test/005 - Angela Thomas Wade - Milk Cow Blues/mixture.wav'
p897
sg12
F211.08929699999999
sg13
I44100
sbg4
(g5
g6
NtRp898
(dp899
g9
I2
sg10
S'/home/ubuntu/AAS/data/DSD100/Mixtures/Test/005 - Angela Thomas Wade - Milk Cow Blues/remainingmix.wav'
p900
sg12
F211.08929699999999
sg13
I44100
sbg4
(g5
g6
NtRp901
(dp902
g9
I2
sg10
S'/home/ubuntu/AAS/data/DSD100/Sources/Test/005 - Angela Thomas Wade - Milk Cow Blues/drums.wav'
p903
sg12
F211.08929699999999
sg13
I44100
sbtp904
a(g4
(g5
g6
NtRp905
(dp906
g9
I2
sg10
S'/home/ubuntu/AAS/data/DSD100/Mixtures/Test/006 - Atlantis Bound - It Was My Fault For Waiting/mixture.wav'
p907
sg12
F268.23659900000001
sg13
I44100
sbg4
(g5
g6
NtRp908
(dp909
g9
I2
sg10
S'/home/ubuntu/AAS/data/DSD100/Mixtures/Test/006 - Atlantis Bound - It Was My Fault For Waiting/remainingmix.wav'
p910
sg12
F268.23659900000001
sg13
I44100
sbg4
(g5
g6
NtRp911
(dp912
g9
I2
sg10
S'/home/ubuntu/AAS/data/DSD100/Sources/Test/006 - Atlantis Bound - It Was My Fault For Waiting/drums.wav'
p913
sg12
F268.23659900000001
sg13
I44100
sbtp914
a(g4
(g5
g6
NtRp915
(dp916
g9
I2
sg10
S'/home/ubuntu/AAS/data/DSD100/Mixtures/Test/007 - BKS - Too Much/mixture.wav'
p917
sg12
F220.124989
sg13
I44100
sbg4
(g5
g6
NtRp918
(dp919
g9
I2
sg10
S'/home/ubuntu/AAS/data/DSD100/Mixtures/Test/007 - BKS - Too Much/remainingmix.wav'
p920
sg12
F220.124989
sg13
I44100
sbg4
(g5
g6
NtRp921
(dp922
g9
I2
sg10
S'/home/ubuntu/AAS/data/DSD100/Sources/Test/007 - BKS - Too Much/drums.wav'
p923
sg12
F220.124989
sg13
I44100
sbtp924
a(g4
(g5
g6
NtRp925
(dp926
g9
I2
sg10
S'/home/ubuntu/AAS/data/DSD100/Mixtures/Test/008 - Bill Chudziak - Children Of No-one/mixture.wav'
p927
sg12
F230.93303900000001
sg13
I44100
sbg4
(g5
g6
NtRp928
(dp929
g9
I2
sg10
S'/home/ubuntu/AAS/data/DSD100/Mixtures/Test/008 - Bill Chudziak - Children Of No-one/remainingmix.wav'
p930
sg12
F230.93303900000001
sg13
I44100
sbg4
(g5
g6
NtRp931
(dp932
g9
I2
sg10
S'/home/ubuntu/AAS/data/DSD100/Sources/Test/008 - Bill Chudziak - Children Of No-one/drums.wav'
p933
sg12
F230.93303900000001
sg13
I44100
sbtp934
a(g4
(g5
g6
NtRp935
(dp936
g9
I2
sg10
S'/home/ubuntu/AAS/data/DSD100/Mixtures/Test/009 - Bobby Nobody - Stitch Up/mixture.wav'
p937
sg12
F221.25
sg13
I44100
sbg4
(g5
g6
NtRp938
(dp939
g9
I2
sg10
S'/home/ubuntu/AAS/data/DSD100/Mixtures/Test/009 - Bobby Nobody - Stitch Up/remainingmix.wav'
p940
sg12
F221.25
sg13
I44100
sbg4
(g5
g6
NtRp941
(dp942
g9
I2
sg10
S'/home/ubuntu/AAS/data/DSD100/Sources/Test/009 - Bobby Nobody - Stitch Up/drums.wav'
p943
sg12
F221.25
sg13
I44100
sbtp944
a(g4
(g5
g6
NtRp945
(dp946
g9
I2
sg10
S'/home/ubuntu/AAS/data/DSD100/Mixtures/Test/010 - Carlos Gonzalez - A Place For Us/mixture.wav'
p947
sg12
F250.21875299999999
sg13
I44100
sbg4
(g5
g6
NtRp948
(dp949
g9
I2
sg10
S'/home/ubuntu/AAS/data/DSD100/Mixtures/Test/010 - Carlos Gonzalez - A Place For Us/remainingmix.wav'
p950
sg12
F250.21875299999999
sg13
I44100
sbg4
(g5
g6
NtRp951
(dp952
g9
I2
sg10
S'/home/ubuntu/AAS/data/DSD100/Sources/Test/010 - Carlos Gonzalez - A Place For Us/drums.wav'
p953
sg12
F250.21875299999999
sg13
I44100
sbtp954
a(g4
(g5
g6
NtRp955
(dp956
g9
I2
sg10
S'/home/ubuntu/AAS/data/DSD100/Mixtures/Test/011 - Cnoc An Tursa - Bannockburn/mixture.wav'
p957
sg12
F294.70088399999997
sg13
I44100
sbg4
(g5
g6
NtRp958
(dp959
g9
I2
sg10
S'/home/ubuntu/AAS/data/DSD100/Mixtures/Test/011 - Cnoc An Tursa - Bannockburn/remainingmix.wav'
p960
sg12
F294.70088399999997
sg13
I44100
sbg4
(g5
g6
NtRp961
(dp962
g9
I2
sg10
S'/home/ubuntu/AAS/data/DSD100/Sources/Test/011 - Cnoc An Tursa - Bannockburn/drums.wav'
p963
sg12
F294.70088399999997
sg13
I44100
sbtp964
a(g4
(g5
g6
NtRp965
(dp966
g9
I2
sg10
S'/home/ubuntu/AAS/data/DSD100/Mixtures/Test/012 - Dark Ride - Burning Bridges/mixture.wav'
p967
sg12
F232.848209
sg13
I44100
sbg4
(g5
g6
NtRp968
(dp969
g9
I2
sg10
S'/home/ubuntu/AAS/data/DSD100/Mixtures/Test/012 - Dark Ride - Burning Bridges/remainingmix.wav'
p970
sg12
F232.848209
sg13
I44100
sbg4
(g5
g6
NtRp971
(dp972
g9
I2
sg10
S'/home/ubuntu/AAS/data/DSD100/Sources/Test/012 - Dark Ride - Burning Bridges/drums.wav'
p973
sg12
F232.848209
sg13
I44100
sbtp974
a(g4
(g5
g6
NtRp975
(dp976
g9
I2
sg10
S'/home/ubuntu/AAS/data/DSD100/Mixtures/Test/040 - The Long Wait - Back Home To Blue/mixture.wav'
p977
sg12
F260.64800500000001
sg13
I44100
sbg4
(g5
g6
NtRp978
(dp979
g9
I2
sg10
S'/home/ubuntu/AAS/data/DSD100/Mixtures/Test/040 - The Long Wait - Back Home To Blue/remainingmix.wav'
p980
sg12
F260.64800500000001
sg13
I44100
sbg4
(g5
g6
NtRp981
(dp982
g9
I2
sg10
S'/home/ubuntu/AAS/data/DSD100/Sources/Test/040 - The Long Wait - Back Home To Blue/drums.wav'
p983
sg12
F260.64800500000001
sg13
I44100
sbtp984
a(g4
(g5
g6
NtRp985
(dp986
g9
I2
sg10
S'/home/ubuntu/AAS/data/DSD100/Mixtures/Test/041 - The Mountaineering Club - Mallory/mixture.wav'
p987
sg12
F244.45981900000001
sg13
I44100
sbg4
(g5
g6
NtRp988
(dp989
g9
I2
sg10
S'/home/ubuntu/AAS/data/DSD100/Mixtures/Test/041 - The Mountaineering Club - Mallory/remainingmix.wav'
p990
sg12
F244.45981900000001
sg13
I44100
sbg4
(g5
g6
NtRp991
(dp992
g9
I2
sg10
S'/home/ubuntu/AAS/data/DSD100/Sources/Test/041 - The Mountaineering Club - Mallory/drums.wav'
p993
sg12
F244.45981900000001
sg13
I44100
sbtp994
a(g4
(g5
g6
NtRp995
(dp996
g9
I2
sg10
S"/home/ubuntu/AAS/data/DSD100/Mixtures/Test/042 - The Wrong'Uns - Rothko/mixture.wav"
p997
sg12
F202.33927399999999
sg13
I44100
sbg4
(g5
g6
NtRp998
(dp999
g9
I2
sg10
S"/home/ubuntu/AAS/data/DSD100/Mixtures/Test/042 - The Wrong'Uns - Rothko/remainingmix.wav"
p1000
sg12
F202.33927399999999
sg13
I44100
sbg4
(g5
g6
NtRp1001
(dp1002
g9
I2
sg10
S"/home/ubuntu/AAS/data/DSD100/Sources/Test/042 - The Wrong'Uns - Rothko/drums.wav"
p1003
sg12
F202.33927399999999
sg13
I44100
sbtp1004
a(g4
(g5
g6
NtRp1005
(dp1006
g9
I2
sg10
S'/home/ubuntu/AAS/data/DSD100/Mixtures/Test/043 - Timboz - Pony/mixture.wav'
p1007
sg12
F253.04873000000001
sg13
I44100
sbg4
(g5
g6
NtRp1008
(dp1009
g9
I2
sg10
S'/home/ubuntu/AAS/data/DSD100/Mixtures/Test/043 - Timboz - Pony/remainingmix.wav'
p1010
sg12
F253.04873000000001
sg13
I44100
sbg4
(g5
g6
NtRp1011
(dp1012
g9
I2
sg10
S'/home/ubuntu/AAS/data/DSD100/Sources/Test/043 - Timboz - Pony/drums.wav'
p1013
sg12
F253.04873000000001
sg13
I44100
sbtp1014
a(g4
(g5
g6
NtRp1015
(dp1016
g9
I2
sg10
S'/home/ubuntu/AAS/data/DSD100/Mixtures/Test/044 - Tom McKenzie - Directions/mixture.wav'
p1017
sg12
F175.852676
sg13
I44100
sbg4
(g5
g6
NtRp1018
(dp1019
g9
I2
sg10
S'/home/ubuntu/AAS/data/DSD100/Mixtures/Test/044 - Tom McKenzie - Directions/remainingmix.wav'
p1020
sg12
F175.852676
sg13
I44100
sbg4
(g5
g6
NtRp1021
(dp1022
g9
I2
sg10
S'/home/ubuntu/AAS/data/DSD100/Sources/Test/044 - Tom McKenzie - Directions/drums.wav'
p1023
sg12
F175.852676
sg13
I44100
sbtp1024
a(g4
(g5
g6
NtRp1025
(dp1026
g9
I2
sg10
S'/home/ubuntu/AAS/data/DSD100/Mixtures/Test/045 - Traffic Experiment - Sirens/mixture.wav'
p1027
sg12
F421.45943299999999
sg13
I44100
sbg4
(g5
g6
NtRp1028
(dp1029
g9
I2
sg10
S'/home/ubuntu/AAS/data/DSD100/Mixtures/Test/045 - Traffic Experiment - Sirens/remainingmix.wav'
p1030
sg12
F421.45943299999999
sg13
I44100
sbg4
(g5
g6
NtRp1031
(dp1032
g9
I2
sg10
S'/home/ubuntu/AAS/data/DSD100/Sources/Test/045 - Traffic Experiment - Sirens/drums.wav'
p1033
sg12
F421.45943299999999
sg13
I44100
sbtp1034
a(g4
(g5
g6
NtRp1035
(dp1036
g9
I2
sg10
S'/home/ubuntu/AAS/data/DSD100/Mixtures/Test/046 - Triviul - Dorothy/mixture.wav'
p1037
sg12
F187.55786800000001
sg13
I44100
sbg4
(g5
g6
NtRp1038
(dp1039
g9
I2
sg10
S'/home/ubuntu/AAS/data/DSD100/Mixtures/Test/046 - Triviul - Dorothy/remainingmix.wav'
p1040
sg12
F187.55786800000001
sg13
I44100
sbg4
(g5
g6
NtRp1041
(dp1042
g9
I2
sg10
S'/home/ubuntu/AAS/data/DSD100/Sources/Test/046 - Triviul - Dorothy/drums.wav'
p1043
sg12
F187.55786800000001
sg13
I44100
sbtp1044
a(g4
(g5
g6
NtRp1045
(dp1046
g9
I2
sg10
S'/home/ubuntu/AAS/data/DSD100/Mixtures/Test/047 - Voelund - Comfort Lives In Belief/mixture.wav'
p1047
sg12
F210.09523799999999
sg13
I44100
sbg4
(g5
g6
NtRp1048
(dp1049
g9
I2
sg10
S'/home/ubuntu/AAS/data/DSD100/Mixtures/Test/047 - Voelund - Comfort Lives In Belief/remainingmix.wav'
p1050
sg12
F210.09523799999999
sg13
I44100
sbg4
(g5
g6
NtRp1051
(dp1052
g9
I2
sg10
S'/home/ubuntu/AAS/data/DSD100/Sources/Test/047 - Voelund - Comfort Lives In Belief/drums.wav'
p1053
sg12
F210.09523799999999
sg13
I44100
sbtp1054
a(g4
(g5
g6
NtRp1055
(dp1056
g9
I2
sg10
S'/home/ubuntu/AAS/data/DSD100/Mixtures/Test/048 - We Fell From The Sky - Not You/mixture.wav'
p1057
sg12
F207.897324
sg13
I44100
sbg4
(g5
g6
NtRp1058
(dp1059
g9
I2
sg10
S'/home/ubuntu/AAS/data/DSD100/Mixtures/Test/048 - We Fell From The Sky - Not You/remainingmix.wav'
p1060
sg12
F207.897324
sg13
I44100
sbg4
(g5
g6
NtRp1061
(dp1062
g9
I2
sg10
S'/home/ubuntu/AAS/data/DSD100/Sources/Test/048 - We Fell From The Sky - Not You/drums.wav'
p1063
sg12
F207.897324
sg13
I44100
sbtp1064
a(g4
(g5
g6
NtRp1065
(dp1066
g9
I2
sg10
S'/home/ubuntu/AAS/data/DSD100/Mixtures/Test/049 - Young Griffo - Facade/mixture.wav'
p1067
sg12
F168.05356
sg13
I44100
sbg4
(g5
g6
NtRp1068
(dp1069
g9
I2
sg10
S'/home/ubuntu/AAS/data/DSD100/Mixtures/Test/049 - Young Griffo - Facade/remainingmix.wav'
p1070
sg12
F168.05356
sg13
I44100
sbg4
(g5
g6
NtRp1071
(dp1072
g9
I2
sg10
S'/home/ubuntu/AAS/data/DSD100/Sources/Test/049 - Young Griffo - Facade/drums.wav'
p1073
sg12
F168.05356
sg13
I44100
sbtp1074
a(g4
(g5
g6
NtRp1075
(dp1076
g9
I2
sg10
S'/home/ubuntu/AAS/data/DSD100/Mixtures/Test/050 - Zeno - Signs/mixture.wav'
p1077
sg12
F234.38392300000001
sg13
I44100
sbg4
(g5
g6
NtRp1078
(dp1079
g9
I2
sg10
S'/home/ubuntu/AAS/data/DSD100/Mixtures/Test/050 - Zeno - Signs/remainingmix.wav'
p1080
sg12
F234.38392300000001
sg13
I44100
sbg4
(g5
g6
NtRp1081
(dp1082
g9
I2
sg10
S'/home/ubuntu/AAS/data/DSD100/Sources/Test/050 - Zeno - Signs/drums.wav'
p1083
sg12
F234.38392300000001
sg13
I44100
sbtp1084
a(g4
(g5
g6
NtRp1085
(dp1086
g9
I2
sg10
S"/home/ubuntu/AAS/data/DSD100/Mixtures/Test/031 - Phre The Eon - Everybody's Falling Apart/mixture.wav"
p1087
sg12
F224.41963699999999
sg13
I44100
sbg4
(g5
g6
NtRp1088
(dp1089
g9
I2
sg10
S"/home/ubuntu/AAS/data/DSD100/Mixtures/Test/031 - Phre The Eon - Everybody's Falling Apart/remainingmix.wav"
p1090
sg12
F224.41963699999999
sg13
I44100
sbg4
(g5
g6
NtRp1091
(dp1092
g9
I2
sg10
S"/home/ubuntu/AAS/data/DSD100/Sources/Test/031 - Phre The Eon - Everybody's Falling Apart/drums.wav"
p1093
sg12
F224.41963699999999
sg13
I44100
sbtp1094
a(g4
(g5
g6
NtRp1095
(dp1096
g9
I2
sg10
S'/home/ubuntu/AAS/data/DSD100/Mixtures/Test/032 - Raft Monk - Tiring/mixture.wav'
p1097
sg12
F212.24553299999999
sg13
I44100
sbg4
(g5
g6
NtRp1098
(dp1099
g9
I2
sg10
S'/home/ubuntu/AAS/data/DSD100/Mixtures/Test/032 - Raft Monk - Tiring/remainingmix.wav'
p1100
sg12
F212.24553299999999
sg13
I44100
sbg4
(g5
g6
NtRp1101
(dp1102
g9
I2
sg10
S'/home/ubuntu/AAS/data/DSD100/Sources/Test/032 - Raft Monk - Tiring/drums.wav'
p1103
sg12
F212.24553299999999
sg13
I44100
sbtp1104
a(g4
(g5
g6
NtRp1105
(dp1106
g9
I1
sg10
S'/home/ubuntu/AAS/data/capstone_data/sups/2/mix.wav'
p1107
sg12
F738.46258503401361
sg13
I44100
sbg4
(g5
g6
NtRp1108
(dp1109
g9
I1
sg10
S'/home/ubuntu/AAS/data/capstone_data/sups/2/acc.wav'
p1110
sg12
F738.46258503401361
sg13
I44100
sbg4
(g5
g6
NtRp1111
(dp1112
g9
I1
sg10
S'/home/ubuntu/AAS/data/capstone_data/sups/2/drums.wav'
p1113
sg12
F738.46258503401361
sg13
I44100
sbtp1114
a(g4
(g5
g6
NtRp1115
(dp1116
g9
I1
sg10
S'/home/ubuntu/AAS/data/capstone_data/sups/6/mix.wav'
p1117
sg12
F271.05884353741499
sg13
I44100
sbg4
(g5
g6
NtRp1118
(dp1119
g9
I1
sg10
S'/home/ubuntu/AAS/data/capstone_data/sups/6/acc.wav'
p1120
sg12
F271.05884353741499
sg13
I44100
sbg4
(g5
g6
NtRp1121
(dp1122
g9
I1
sg10
S'/home/ubuntu/AAS/data/capstone_data/sups/6/drums.wav'
p1123
sg12
F271.05884353741499
sg13
I44100
sbtp1124
a(g4
(g5
g6
NtRp1125
(dp1126
g9
I1
sg10
S'/home/ubuntu/AAS/data/capstone_data/sups/12/mix.wav'
p1127
sg12
F66
sg13
I44100
sbg4
(g5
g6
NtRp1128
(dp1129
g9
I1
sg10
S'/home/ubuntu/AAS/data/capstone_data/sups/12/acc.wav'
p1130
sg12
F66
sg13
I44100
sbg4
(g5
g6
NtRp1131
(dp1132
g9
I1
sg10
S'/home/ubuntu/AAS/data/capstone_data/sups/12/drums.wav'
p1133
sg12
F66
sg13
I44100
sbtp1134
asS'train_unsup'
p1135
(lp1136
(lp1137
g4
(g5
g6
NtRp1138
(dp1139
g9
I2
sg10
S'/home/ubuntu/AAS/data/capstone_data/unsup_mix/mix_1.wav'
p1140
sg12
F435.12163265306123
sg13
I44100
sbag4
(g5
g6
NtRp1141
(dp1142
g9
I2
sg10
S'/home/ubuntu/AAS/data/capstone_data/unsup_mix/mix_2.wav'
p1143
sg12
F205.81333333333333
sg13
I44100
sbag4
(g5
g6
NtRp1144
(dp1145
g9
I2
sg10
S'/home/ubuntu/AAS/data/capstone_data/unsup_mix/mix_3.wav'
p1146
sg12
F436.14628117913833
sg13
I44100
sbag4
(g5
g6
NtRp1147
(dp1148
g9
I2
sg10
S'/home/ubuntu/AAS/data/capstone_data/unsup_mix/mix_4.wav'
p1149
sg12
F281.44326530612244
sg13
I44100
sbag4
(g5
g6
NtRp1150
(dp1151
g9
I2
sg10
S'/home/ubuntu/AAS/data/capstone_data/unsup_mix/mix_5.wav'
p1152
sg12
F437.15603174603177
sg13
I44100
sbag4
(g5
g6
NtRp1153
(dp1154
g9
I2
sg10
S'/home/ubuntu/AAS/data/capstone_data/unsup_mix/mix_6.wav'
p1155
sg12
F186.50666666666666
sg13
I44100
sbag4
(g5
g6
NtRp1156
(dp1157
g9
I2
sg10
S'/home/ubuntu/AAS/data/capstone_data/unsup_mix/mix_7.wav'
p1158
sg12
F349
sg13
I44100
sbag4
(g5
g6
NtRp1159
(dp1160
g9
I2
sg10
S'/home/ubuntu/AAS/data/capstone_data/unsup_mix/mix_8.wav'
p1161
sg12
F545.84331065759636
sg13
I44100
sbag4
(g5
g6
NtRp1162
(dp1163
g9
I2
sg10
S'/home/ubuntu/AAS/data/capstone_data/unsup_mix/mix_9.wav'
p1164
sg12
F196.05333333333334
sg13
I44100
sbag4
(g5
g6
NtRp1165
(dp1166
g9
I2
sg10
S'/home/ubuntu/AAS/data/capstone_data/unsup_mix/mix_10.wav'
p1167
sg12
F164.06666666666666
sg13
I44100
sbag4
(g5
g6
NtRp1168
(dp1169
g9
I2
sg10
S'/home/ubuntu/AAS/data/capstone_data/unsup_mix/mix_11.wav'
p1170
sg12
F515.12
sg13
I44100
sbag4
(g5
g6
NtRp1171
(dp1172
g9
I2
sg10
S'/home/ubuntu/AAS/data/capstone_data/unsup_mix/mix_12.wav'
p1173
sg12
F245.88
sg13
I48000
sbag4
(g5
g6
NtRp1174
(dp1175
g9
I2
sg10
S'/home/ubuntu/AAS/data/capstone_data/unsup_mix/mix_13.wav'
p1176
sg12
F447.40213151927435
sg13
I44100
sbag4
(g5
g6
NtRp1177
(dp1178
g9
I2
sg10
S'/home/ubuntu/AAS/data/capstone_data/unsup_mix/mix_14.wav'
p1179
sg12
F208.03918367346938
sg13
I44100
sbag4
(g5
g6
NtRp1180
(dp1181
g9
I2
sg10
S'/home/ubuntu/AAS/data/capstone_data/unsup_mix/mix_15.wav'
p1182
sg12
F501.74666666666667
sg13
I44100
sbag4
(g5
g6
NtRp1183
(dp1184
g9
I2
sg10
S'/home/ubuntu/AAS/data/capstone_data/unsup_mix/mix_16.wav'
p1185
sg12
F186.80680272108845
sg13
I44100
sbag4
(g5
g6
NtRp1186
(dp1187
g9
I2
sg10
S'/home/ubuntu/AAS/data/capstone_data/unsup_mix/mix_17.wav'
p1188
sg12
F570.72000000000003
sg13
I44100
sbag4
(g5
g6
NtRp1189
(dp1190
g9
I2
sg10
S'/home/ubuntu/AAS/data/capstone_data/unsup_mix/mix_18.wav'
p1191
sg12
F577.06229024943309
sg13
I44100
sbag4
(g5
g6
NtRp1192
(dp1193
g9
I2
sg10
S'/home/ubuntu/AAS/data/capstone_data/unsup_mix/mix_19.wav'
p1194
sg12
F510.09333333333331
sg13
I44100
sbag4
(g5
g6
NtRp1195
(dp1196
g9
I2
sg10
S'/home/ubuntu/AAS/data/capstone_data/unsup_mix/mix_20.wav'
p1197
sg12
F320.85333333333335
sg13
I44100
sbag4
(g5
g6
NtRp1198
(dp1199
g9
I2
sg10
S'/home/ubuntu/AAS/data/capstone_data/unsup_mix/mix_21.wav'
p1200
sg12
F180
sg13
I44100
sbag4
(g5
g6
NtRp1201
(dp1202
g9
I2
sg10
S'/home/ubuntu/AAS/data/capstone_data/unsup_mix/mix_22.wav'
p1203
sg12
F212.05287981859411
sg13
I44100
sbag4
(g5
g6
NtRp1204
(dp1205
g9
I2
sg10
S'/home/ubuntu/AAS/data/capstone_data/unsup_mix/mix_23.wav'
p1206
sg12
F282.76392290249436
sg13
I44100
sbag4
(g5
g6
NtRp1207
(dp1208
g9
I1
sg10
S'/home/ubuntu/AAS/data/capstone_data/unsup_mix/mix_24.wav'
p1209
sg12
F329.14285714285717
sg13
I44100
sbag4
(g5
g6
NtRp1210
(dp1211
g9
I2
sg10
S'/home/ubuntu/AAS/data/capstone_data/unsup_mix/mix_25.wav'
p1212
sg12
F242.16
sg13
I44100
sbag4
(g5
g6
NtRp1213
(dp1214
g9
I2
sg10
S'/home/ubuntu/AAS/data/capstone_data/unsup_mix/mix_26.wav'
p1215
sg12
F343.25585034013608
sg13
I44100
sbag4
(g5
g6
NtRp1216
(dp1217
g9
I2
sg10
S'/home/ubuntu/AAS/data/capstone_data/unsup_mix/mix_27.wav'
p1218
sg12
F342.82485260770977
sg13
I44100
sbag4
(g5
g6
NtRp1219
(dp1220
g9
I2
sg10
S'/home/ubuntu/AAS/data/capstone_data/unsup_mix/mix_28.wav'
p1221
sg12
F241.45353741496598
sg13
I44100
sbag4
(g5
g6
NtRp1222
(dp1223
g9
I2
sg10
S'/home/ubuntu/AAS/data/capstone_data/unsup_mix/mix_29.wav'
p1224
sg12
F258.01775510204084
sg13
I44100
sbag4
(g5
g6
NtRp1225
(dp1226
g9
I2
sg10
S'/home/ubuntu/AAS/data/capstone_data/unsup_mix/mix_30.wav'
p1227
sg12
F236.22666666666666
sg13
I44100
sbag4
(g5
g6
NtRp1228
(dp1229
g9
I2
sg10
S'/home/ubuntu/AAS/data/capstone_data/unsup_mix/mix_31.wav'
p1230
sg12
F339.56916099773241
sg13
I44100
sbag4
(g5
g6
NtRp1231
(dp1232
g9
I2
sg10
S'/home/ubuntu/AAS/data/capstone_data/unsup_mix/mix_32.wav'
p1233
sg12
F344.46666666666664
sg13
I44100
sbag4
(g5
g6
NtRp1234
(dp1235
g9
I2
sg10
S'/home/ubuntu/AAS/data/capstone_data/unsup_mix/mix_33.wav'
p1236
sg12
F213.49027210884353
sg13
I44100
sbag4
(g5
g6
NtRp1237
(dp1238
g9
I2
sg10
S'/home/ubuntu/AAS/data/capstone_data/unsup_mix/mix_34.wav'
p1239
sg12
F258.61333333333334
sg13
I44100
sbag4
(g5
g6
NtRp1240
(dp1241
g9
I2
sg10
S'/home/ubuntu/AAS/data/capstone_data/unsup_mix/mix_35.wav'
p1242
sg12
F271.85333333333335
sg13
I44100
sbag4
(g5
g6
NtRp1243
(dp1244
g9
I2
sg10
S'/home/ubuntu/AAS/data/capstone_data/unsup_mix/mix_36.wav'
p1245
sg12
F230.91999999999999
sg13
I44100
sbag4
(g5
g6
NtRp1246
(dp1247
g9
I2
sg10
S'/home/ubuntu/AAS/data/capstone_data/unsup_mix/mix_38.wav'
p1248
sg12
F262.04000000000002
sg13
I44100
sbag4
(g5
g6
NtRp1249
(dp1250
g9
I2
sg10
S'/home/ubuntu/AAS/data/capstone_data/unsup_mix/mix_40.wav'
p1251
sg12
F326.70666666666665
sg13
I44100
sbag4
(g5
g6
NtRp1252
(dp1253
g9
I2
sg10
S'/home/ubuntu/AAS/data/capstone_data/unsup_mix/mix_41.wav'
p1254
sg12
F358.01374149659864
sg13
I44100
sbag4
(g5
g6
NtRp1255
(dp1256
g9
I2
sg10
S'/home/ubuntu/AAS/data/capstone_data/unsup_mix/mix_43.wav'
p1257
sg12
F250.37292517006802
sg13
I44100
sbag4
(g5
g6
NtRp1258
(dp1259
g9
I2
sg10
S'/home/ubuntu/AAS/data/capstone_data/unsup_mix/mix_44.wav'
p1260
sg12
F393.81249433106575
sg13
I44100
sbag4
(g5
g6
NtRp1261
(dp1262
g9
I2
sg10
S'/home/ubuntu/AAS/data/capstone_data/unsup_mix/mix_45.wav'
p1263
sg12
F409.2487528344671
sg13
I44100
sbag4
(g5
g6
NtRp1264
(dp1265
g9
I2
sg10
S'/home/ubuntu/AAS/data/capstone_data/unsup_mix/mix_46.wav'
p1266
sg12
F230.9892970521542
sg13
I44100
sbag4
(g5
g6
NtRp1267
(dp1268
g9
I2
sg10
S'/home/ubuntu/AAS/data/capstone_data/unsup_mix/mix_47.wav'
p1269
sg12
F439.53380952380951
sg13
I44100
sbag4
(g5
g6
NtRp1270
(dp1271
g9
I2
sg10
S'/home/ubuntu/AAS/data/capstone_data/unsup_mix/mix_48.wav'
p1272
sg12
F223.22666666666666
sg13
I44100
sbag4
(g5
g6
NtRp1273
(dp1274
g9
I2
sg10
S'/home/ubuntu/AAS/data/capstone_data/unsup_mix/mix_49.wav'
p1275
sg12
F185.70666666666668
sg13
I44100
sbag4
(g5
g6
NtRp1276
(dp1277
g9
I2
sg10
S'/home/ubuntu/AAS/data/capstone_data/unsup_mix/mix_50.wav'
p1278
sg12
F476.6322222222222
sg13
I44100
sbag4
(g5
g6
NtRp1279
(dp1280
g9
I2
sg10
S'/home/ubuntu/AAS/data/capstone_data/unsup_mix/mix_51.wav'
p1281
sg12
F478.24739229024942
sg13
I44100
sbag4
(g5
g6
NtRp1282
(dp1283
g9
I2
sg10
S'/home/ubuntu/AAS/data/capstone_data/unsup_mix/mix_52.wav'
p1284
sg12
F417.42770975056692
sg13
I44100
sbag4
(g5
g6
NtRp1285
(dp1286
g9
I2
sg10
S'/home/ubuntu/AAS/data/capstone_data/unsup_mix/mix_53.wav'
p1287
sg12
F400.88
sg13
I44100
sbag4
(g5
g6
NtRp1288
(dp1289
g9
I2
sg10
S'/home/ubuntu/AAS/data/capstone_data/unsup_mix/mix_54.wav'
p1290
sg12
F399.89333333333332
sg13
I44100
sbag4
(g5
g6
NtRp1291
(dp1292
g9
I2
sg10
S'/home/ubuntu/AAS/data/capstone_data/unsup_mix/mix_55.wav'
p1293
sg12
F334.77333333333331
sg13
I44100
sbag4
(g5
g6
NtRp1294
(dp1295
g9
I2
sg10
S'/home/ubuntu/AAS/data/capstone_data/unsup_mix/mix_56.wav'
p1296
sg12
F231.85333333333332
sg13
I44100
sbag4
(g5
g6
NtRp1297
(dp1298
g9
I2
sg10
S'/home/ubuntu/AAS/data/capstone_data/unsup_mix/mix_57.wav'
p1299
sg12
F385.01142857142855
sg13
I44100
sbag4
(g5
g6
NtRp1300
(dp1301
g9
I2
sg10
S'/home/ubuntu/AAS/data/capstone_data/unsup_mix/mix_58.wav'
p1302
sg12
F498.79335600907029
sg13
I44100
sbag4
(g5
g6
NtRp1303
(dp1304
g9
I2
sg10
S'/home/ubuntu/AAS/data/capstone_data/unsup_mix/mix_59.wav'
p1305
sg12
F496.11521541950111
sg13
I44100
sbag4
(g5
g6
NtRp1306
(dp1307
g9
I2
sg10
S'/home/ubuntu/AAS/data/capstone_data/unsup_mix/mix_60.wav'
p1308
sg12
F401.47283446712021
sg13
I44100
sbag4
(g5
g6
NtRp1309
(dp1310
g9
I2
sg10
S'/home/ubuntu/AAS/data/capstone_data/unsup_mix/mix_61.wav'
p1311
sg12
F309.7893424036281
sg13
I44100
sbag4
(g5
g6
NtRp1312
(dp1313
g9
I2
sg10
S'/home/ubuntu/AAS/data/capstone_data/unsup_mix/mix_62.wav'
p1314
sg12
F358.55655328798184
sg13
I44100
sbag4
(g5
g6
NtRp1315
(dp1316
g9
I2
sg10
S'/home/ubuntu/AAS/data/capstone_data/unsup_mix/mix_63.wav'
p1317
sg12
F301
sg13
I44100
sbag4
(g5
g6
NtRp1318
(dp1319
g9
I2
sg10
S'/home/ubuntu/AAS/data/capstone_data/unsup_mix/mix_64.wav'
p1320
sg12
F295.19954648526078
sg13
I44100
sbag4
(g5
g6
NtRp1321
(dp1322
g9
I2
sg10
S'/home/ubuntu/AAS/data/capstone_data/unsup_mix/mix_65.wav'
p1323
sg12
F436
sg13
I44100
sbag4
(g5
g6
NtRp1324
(dp1325
g9
I2
sg10
S'/home/ubuntu/AAS/data/capstone_data/unsup_mix/mix_66.wav'
p1326
sg12
F278.61333333333334
sg13
I44100
sbag4
(g5
g6
NtRp1327
(dp1328
g9
I2
sg10
S'/home/ubuntu/AAS/data/capstone_data/unsup_mix/mix_67.wav'
p1329
sg12
F246.74666666666667
sg13
I44100
sbag4
(g5
g6
NtRp1330
(dp1331
g9
I2
sg10
S'/home/ubuntu/AAS/data/capstone_data/unsup_mix/mix_68.wav'
p1332
sg12
F430.51326530612243
sg13
I44100
sbag4
(g5
g6
NtRp1333
(dp1334
g9
I2
sg10
S'/home/ubuntu/AAS/data/capstone_data/unsup_mix/mix_69.wav'
p1335
sg12
F340.92233560090705
sg13
I44100
sbag4
(g5
g6
NtRp1336
(dp1337
g9
I2
sg10
S'/home/ubuntu/AAS/data/capstone_data/unsup_mix/mix_70.wav'
p1338
sg12
F355.70938775510206
sg13
I44100
sbag4
(g5
g6
NtRp1339
(dp1340
g9
I2
sg10
S'/home/ubuntu/AAS/data/capstone_data/unsup_mix/mix_71.wav'
p1341
sg12
F408
sg13
I44100
sbag4
(g5
g6
NtRp1342
(dp1343
g9
I2
sg10
S'/home/ubuntu/AAS/data/capstone_data/unsup_mix/mix_72.wav'
p1344
sg12
F509.22671201814057
sg13
I44100
sbag4
(g5
g6
NtRp1345
(dp1346
g9
I2
sg10
S'/home/ubuntu/AAS/data/capstone_data/unsup_mix/mix_73.wav'
p1347
sg12
F272.39145124716555
sg13
I44100
sbag4
(g5
g6
NtRp1348
(dp1349
g9
I2
sg10
S'/home/ubuntu/AAS/data/capstone_data/unsup_mix/mix_74.wav'
p1350
sg12
F166.48648526077096
sg13
I44100
sbag4
(g5
g6
NtRp1351
(dp1352
g9
I2
sg10
S'/home/ubuntu/AAS/data/capstone_data/unsup_mix/mix_75.wav'
p1353
sg12
F366.82927437641723
sg13
I44100
sbag4
(g5
g6
NtRp1354
(dp1355
g9
I2
sg10
S'/home/ubuntu/AAS/data/capstone_data/unsup_mix/mix_76.wav'
p1356
sg12
F176.36308390022677
sg13
I44100
sbag4
(g5
g6
NtRp1357
(dp1358
g9
I2
sg10
S'/home/ubuntu/AAS/data/capstone_data/unsup_mix/mix_78.wav'
p1359
sg12
F284.37333333333333
sg13
I44100
sbag4
(g5
g6
NtRp1360
(dp1361
g9
I2
sg10
S'/home/ubuntu/AAS/data/capstone_data/unsup_mix/mix_79.wav'
p1362
sg12
F342.25471655328801
sg13
I44100
sbag4
(g5
g6
NtRp1363
(dp1364
g9
I2
sg10
S'/home/ubuntu/AAS/data/capstone_data/unsup_mix/mix_80.wav'
p1365
sg12
F277.71437641723355
sg13
I44100
sbag4
(g5
g6
NtRp1366
(dp1367
g9
I2
sg10
S'/home/ubuntu/AAS/data/capstone_data/unsup_mix/mix_81.wav'
p1368
sg12
F278.27662131519276
sg13
I44100
sbag4
(g5
g6
NtRp1369
(dp1370
g9
I2
sg10
S'/home/ubuntu/AAS/data/capstone_data/unsup_mix/mix_82.wav'
p1371
sg12
F379.14634920634921
sg13
I44100
sbag4
(g5
g6
NtRp1372
(dp1373
g9
I2
sg10
S'/home/ubuntu/AAS/data/capstone_data/unsup_mix/mix_83.wav'
p1374
sg12
F181.34666666666666
sg13
I44100
sbag4
(g5
g6
NtRp1375
(dp1376
g9
I2
sg10
S'/home/ubuntu/AAS/data/capstone_data/unsup_mix/mix_84.wav'
p1377
sg12
F391.06541950113376
sg13
I44100
sbag4
(g5
g6
NtRp1378
(dp1379
g9
I2
sg10
S'/home/ubuntu/AAS/data/capstone_data/unsup_mix/mix_85.wav'
p1380
sg12
F160.31999999999999
sg13
I44100
sbag4
(g5
g6
NtRp1381
(dp1382
g9
I2
sg10
S'/home/ubuntu/AAS/data/capstone_data/unsup_mix/mix_86.wav'
p1383
sg12
F262.39999999999998
sg13
I44100
sbag4
(g5
g6
NtRp1384
(dp1385
g9
I2
sg10
S'/home/ubuntu/AAS/data/capstone_data/unsup_mix/mix_87.wav'
p1386
sg12
F507.81551020408165
sg13
I44100
sbag4
(g5
g6
NtRp1387
(dp1388
g9
I2
sg10
S'/home/ubuntu/AAS/data/capstone_data/unsup_mix/mix_88.wav'
p1389
sg12
F198.41526077097507
sg13
I44100
sbag4
(g5
g6
NtRp1390
(dp1391
g9
I2
sg10
S'/home/ubuntu/AAS/data/capstone_data/unsup_mix/mix_89.wav'
p1392
sg12
F430.31074829931976
sg13
I44100
sbag4
(g5
g6
NtRp1393
(dp1394
g9
I2
sg10
S'/home/ubuntu/AAS/data/capstone_data/unsup_mix/mix_90.wav'
p1395
sg12
F218.31999999999999
sg13
I44100
sbag4
(g5
g6
NtRp1396
(dp1397
g9
I2
sg10
S'/home/ubuntu/AAS/data/capstone_data/unsup_mix/mix_91.wav'
p1398
sg12
F268.44
sg13
I44100
sbag4
(g5
g6
NtRp1399
(dp1400
g9
I2
sg10
S'/home/ubuntu/AAS/data/capstone_data/unsup_mix/mix_92.wav'
p1401
sg12
F222.06691609977324
sg13
I44100
sbag4
(g5
g6
NtRp1402
(dp1403
g9
I2
sg10
S'/home/ubuntu/AAS/data/capstone_data/unsup_mix/mix_93.wav'
p1404
sg12
F383.95310657596372
sg13
I44100
sbag4
(g5
g6
NtRp1405
(dp1406
g9
I2
sg10
S'/home/ubuntu/AAS/data/capstone_data/unsup_mix/mix_94.wav'
p1407
sg12
F206.30666666666667
sg13
I44100
sbag4
(g5
g6
NtRp1408
(dp1409
g9
I2
sg10
S'/home/ubuntu/AAS/data/capstone_data/unsup_mix/mix_95.wav'
p1410
sg12
F368.63999999999999
sg13
I44100
sbag4
(g5
g6
NtRp1411
(dp1412
g9
I2
sg10
S'/home/ubuntu/AAS/data/capstone_data/unsup_mix/mix_96.wav'
p1413
sg12
F346.46666666666664
sg13
I44100
sbag4
(g5
g6
NtRp1414
(dp1415
g9
I2
sg10
S'/home/ubuntu/AAS/data/capstone_data/unsup_mix/mix_97.wav'
p1416
sg12
F390.84916099773244
sg13
I44100
sbag4
(g5
g6
NtRp1417
(dp1418
g9
I2
sg10
S'/home/ubuntu/AAS/data/capstone_data/unsup_mix/mix_98.wav'
p1419
sg12
F326.70666666666665
sg13
I44100
sbag4
(g5
g6
NtRp1420
(dp1421
g9
I2
sg10
S'/home/ubuntu/AAS/data/capstone_data/unsup_mix/mix_99.wav'
p1422
sg12
F257.72517006802724
sg13
I44100
sbag4
(g5
g6
NtRp1423
(dp1424
g9
I2
sg10
S'/home/ubuntu/AAS/data/capstone_data/unsup_mix/mix_100.wav'
p1425
sg12
F297.18022675736961
sg13
I44100
sbag4
(g5
g6
NtRp1426
(dp1427
g9
I2
sg10
S'/home/ubuntu/AAS/data/capstone_data/unsup_mix/mix_101.wav'
p1428
sg12
F160.06666666666666
sg13
I44100
sbag4
(g5
g6
NtRp1429
(dp1430
g9
I2
sg10
S'/home/ubuntu/AAS/data/capstone_data/unsup_mix/mix_102.wav'
p1431
sg12
F455.14013605442176
sg13
I44100
sbag4
(g5
g6
NtRp1432
(dp1433
g9
I2
sg10
S'/home/ubuntu/AAS/data/capstone_data/unsup_mix/mix_103.wav'
p1434
sg12
F362.79585034013604
sg13
I44100
sbag4
(g5
g6
NtRp1435
(dp1436
g9
I2
sg10
S'/home/ubuntu/AAS/data/capstone_data/unsup_mix/mix_104.wav'
p1437
sg12
F326.55739229024942
sg13
I44100
sbag4
(g5
g6
NtRp1438
(dp1439
g9
I2
sg10
S'/home/ubuntu/AAS/data/capstone_data/unsup_mix/mix_105.wav'
p1440
sg12
F239.46666666666667
sg13
I44100
sbag4
(g5
g6
NtRp1441
(dp1442
g9
I2
sg10
S'/home/ubuntu/AAS/data/capstone_data/unsup_mix/mix_106.wav'
p1443
sg12
F166.68000000000001
sg13
I44100
sbag4
(g5
g6
NtRp1444
(dp1445
g9
I2
sg10
S'/home/ubuntu/AAS/data/capstone_data/unsup_mix/mix_107.wav'
p1446
sg12
F256.5983673469388
sg13
I44100
sbag4
(g5
g6
NtRp1447
(dp1448
g9
I2
sg10
S'/home/ubuntu/AAS/data/capstone_data/unsup_mix/mix_108.wav'
p1449
sg12
F333.70698412698414
sg13
I44100
sbag4
(g5
g6
NtRp1450
(dp1451
g9
I2
sg10
S'/home/ubuntu/AAS/data/capstone_data/unsup_mix/mix_109.wav'
p1452
sg12
F283
sg13
I44100
sbag4
(g5
g6
NtRp1453
(dp1454
g9
I2
sg10
S'/home/ubuntu/AAS/data/capstone_data/unsup_mix/mix_110.wav'
p1455
sg12
F386.63999999999999
sg13
I44100
sbag4
(g5
g6
NtRp1456
(dp1457
g9
I2
sg10
S'/home/ubuntu/AAS/data/capstone_data/unsup_mix/mix_111.wav'
p1458
sg12
F493
sg13
I44100
sbag4
(g5
g6
NtRp1459
(dp1460
g9
I2
sg10
S'/home/ubuntu/AAS/data/capstone_data/unsup_mix/mix_112.wav'
p1461
sg12
F252.29376417233561
sg13
I44100
sbag4
(g5
g6
NtRp1462
(dp1463
g9
I2
sg10
S'/home/ubuntu/AAS/data/capstone_data/unsup_mix/mix_113.wav'
p1464
sg12
F364.85333333333335
sg13
I44100
sbag4
(g5
g6
NtRp1465
(dp1466
g9
I2
sg10
S'/home/ubuntu/AAS/data/capstone_data/unsup_mix/mix_114.wav'
p1467
sg12
F266.97333333333336
sg13
I44100
sbag4
(g5
g6
NtRp1468
(dp1469
g9
I2
sg10
S'/home/ubuntu/AAS/data/capstone_data/unsup_mix/mix_115.wav'
p1470
sg12
F394.46052154195013
sg13
I44100
sbag4
(g5
g6
NtRp1471
(dp1472
g9
I2
sg10
S'/home/ubuntu/AAS/data/capstone_data/unsup_mix/mix_116.wav'
p1473
sg12
F237.14287981859411
sg13
I44100
sbag4
(g5
g6
NtRp1474
(dp1475
g9
I2
sg10
S'/home/ubuntu/AAS/data/capstone_data/unsup_mix/mix_117.wav'
p1476
sg12
F318.14916099773245
sg13
I44100
sbag4
(g5
g6
NtRp1477
(dp1478
g9
I2
sg10
S'/home/ubuntu/AAS/data/capstone_data/unsup_mix/mix_118.wav'
p1479
sg12
F306.36000000000001
sg13
I44100
sbag4
(g5
g6
NtRp1480
(dp1481
g9
I2
sg10
S'/home/ubuntu/AAS/data/capstone_data/unsup_mix/mix_119.wav'
p1482
sg12
F374.15183673469386
sg13
I44100
sbag4
(g5
g6
NtRp1483
(dp1484
g9
I2
sg10
S'/home/ubuntu/AAS/data/capstone_data/unsup_mix/mix_120.wav'
p1485
sg12
F257.78793650793654
sg13
I44100
sbag4
(g5
g6
NtRp1486
(dp1487
g9
I2
sg10
S'/home/ubuntu/AAS/data/capstone_data/unsup_mix/mix_121.wav'
p1488
sg12
F261.93333333333334
sg13
I44100
sbag4
(g5
g6
NtRp1489
(dp1490
g9
I2
sg10
S'/home/ubuntu/AAS/data/capstone_data/unsup_mix/mix_122.wav'
p1491
sg12
F240.02666666666667
sg13
I44100
sbag4
(g5
g6
NtRp1492
(dp1493
g9
I2
sg10
S'/home/ubuntu/AAS/data/capstone_data/unsup_mix/mix_123.wav'
p1494
sg12
F426.89312925170066
sg13
I44100
sbag4
(g5
g6
NtRp1495
(dp1496
g9
I2
sg10
S'/home/ubuntu/AAS/data/capstone_data/unsup_mix/mix_124.wav'
p1497
sg12
F433.11947845804991
sg13
I44100
sbag4
(g5
g6
NtRp1498
(dp1499
g9
I2
sg10
S'/home/ubuntu/AAS/data/capstone_data/unsup_mix/mix_125.wav'
p1500
sg12
F339.56916099773241
sg13
I44100
sbag4
(g5
g6
NtRp1501
(dp1502
g9
I2
sg10
S'/home/ubuntu/AAS/data/capstone_data/unsup_mix/mix_126.wav'
p1503
sg12
F642.39999999999998
sg13
I44100
sbag4
(g5
g6
NtRp1504
(dp1505
g9
I2
sg10
S'/home/ubuntu/AAS/data/capstone_data/unsup_mix/mix_127.wav'
p1506
sg12
F344.47061224489795
sg13
I44100
sbag4
(g5
g6
NtRp1507
(dp1508
g9
I2
sg10
S'/home/ubuntu/AAS/data/capstone_data/unsup_mix/mix_128.wav'
p1509
sg12
F277.51999999999998
sg13
I44100
sbag4
(g5
g6
NtRp1510
(dp1511
g9
I2
sg10
S'/home/ubuntu/AAS/data/capstone_data/unsup_mix/mix_129.wav'
p1512
sg12
F394.72192743764174
sg13
I44100
sbag4
(g5
g6
NtRp1513
(dp1514
g9
I2
sg10
S'/home/ubuntu/AAS/data/capstone_data/unsup_mix/mix_130.wav'
p1515
sg12
F278.39999999999998
sg13
I44100
sbag4
(g5
g6
NtRp1516
(dp1517
g9
I2
sg10
S'/home/ubuntu/AAS/data/capstone_data/unsup_mix/mix_131.wav'
p1518
sg12
F357.05333333333334
sg13
I44100
sbag4
(g5
g6
NtRp1519
(dp1520
g9
I2
sg10
S'/home/ubuntu/AAS/data/capstone_data/unsup_mix/mix_132.wav'
p1521
sg12
F368.86648526077096
sg13
I44100
sbag4
(g5
g6
NtRp1522
(dp1523
g9
I2
sg10
S'/home/ubuntu/AAS/data/capstone_data/unsup_mix/mix_133.wav'
p1524
sg12
F308.63780045351473
sg13
I44100
sbag4
(g5
g6
NtRp1525
(dp1526
g9
I2
sg10
S'/home/ubuntu/AAS/data/capstone_data/unsup_mix/mix_134.wav'
p1527
sg12
F385.05049886621316
sg13
I44100
sbag4
(g5
g6
NtRp1528
(dp1529
g9
I2
sg10
S'/home/ubuntu/AAS/data/capstone_data/unsup_mix/mix_135.wav'
p1530
sg12
F276.09333333333331
sg13
I44100
sbag4
(g5
g6
NtRp1531
(dp1532
g9
I2
sg10
S'/home/ubuntu/AAS/data/capstone_data/unsup_mix/mix_136.wav'
p1533
sg12
F249.02666666666667
sg13
I44100
sbag4
(g5
g6
NtRp1534
(dp1535
g9
I2
sg10
S'/home/ubuntu/AAS/data/capstone_data/unsup_mix/mix_137.wav'
p1536
sg12
F285.90666666666669
sg13
I44100
sbag4
(g5
g6
NtRp1537
(dp1538
g9
I2
sg10
S'/home/ubuntu/AAS/data/capstone_data/unsup_mix/mix_138.wav'
p1539
sg12
F327.57335600907027
sg13
I44100
sbag4
(g5
g6
NtRp1540
(dp1541
g9
I2
sg10
S'/home/ubuntu/AAS/data/capstone_data/unsup_mix/mix_139.wav'
p1542
sg12
F840.15020408163264
sg13
I44100
sbag4
(g5
g6
NtRp1543
(dp1544
g9
I2
sg10
S'/home/ubuntu/AAS/data/capstone_data/unsup_mix/mix_140.wav'
p1545
sg12
F461.01780045351472
sg13
I44100
sbag4
(g5
g6
NtRp1546
(dp1547
g9
I2
sg10
S'/home/ubuntu/AAS/data/capstone_data/unsup_mix/mix_141.wav'
p1548
sg12
F334.14573696145123
sg13
I44100
sbag4
(g5
g6
NtRp1549
(dp1550
g9
I2
sg10
S'/home/ubuntu/AAS/data/capstone_data/unsup_mix/mix_142.wav'
p1551
sg12
F408.94521541950115
sg13
I44100
sbag4
(g5
g6
NtRp1552
(dp1553
g9
I2
sg10
S'/home/ubuntu/AAS/data/capstone_data/unsup_mix/mix_143.wav'
p1554
sg12
F375.78548752834467
sg13
I44100
sbag4
(g5
g6
NtRp1555
(dp1556
g9
I2
sg10
S'/home/ubuntu/AAS/data/capstone_data/unsup_mix/mix_144.wav'
p1557
sg12
F399.02666666666664
sg13
I44100
sbag4
(g5
g6
NtRp1558
(dp1559
g9
I2
sg10
S'/home/ubuntu/AAS/data/capstone_data/unsup_mix/mix_145.wav'
p1560
sg12
F446.55739229024942
sg13
I44100
sbag4
(g5
g6
NtRp1561
(dp1562
g9
I2
sg10
S'/home/ubuntu/AAS/data/capstone_data/unsup_mix/mix_146.wav'
p1563
sg12
F493.97727891156461
sg13
I44100
sbag4
(g5
g6
NtRp1564
(dp1565
g9
I2
sg10
S'/home/ubuntu/AAS/data/capstone_data/unsup_mix/mix_147.wav'
p1566
sg12
F153.43535147392291
sg13
I44100
sbag4
(g5
g6
NtRp1567
(dp1568
g9
I2
sg10
S'/home/ubuntu/AAS/data/capstone_data/unsup_mix/mix_148.wav'
p1569
sg12
F390.43374149659866
sg13
I44100
sbag4
(g5
g6
NtRp1570
(dp1571
g9
I2
sg10
S'/home/ubuntu/AAS/data/capstone_data/unsup_mix/mix_149.wav'
p1572
sg12
F310.46666666666664
sg13
I44100
sbag4
(g5
g6
NtRp1573
(dp1574
g9
I2
sg10
S'/home/ubuntu/AAS/data/capstone_data/unsup_mix/mix_150.wav'
p1575
sg12
F270.29000000000002
sg13
I44100
sbag4
(g5
g6
NtRp1576
(dp1577
g9
I2
sg10
S'/home/ubuntu/AAS/data/capstone_data/unsup_mix/mix_151.wav'
p1578
sg12
F430.24185941043083
sg13
I44100
sbag4
(g5
g6
NtRp1579
(dp1580
g9
I2
sg10
S'/home/ubuntu/AAS/data/capstone_data/unsup_mix/mix_152.wav'
p1581
sg12
F424.49333333333334
sg13
I44100
sbag4
(g5
g6
NtRp1582
(dp1583
g9
I2
sg10
S'/home/ubuntu/AAS/data/capstone_data/unsup_mix/mix_153.wav'
p1584
sg12
F188.25
sg13
I44100
sbag4
(g5
g6
NtRp1585
(dp1586
g9
I2
sg10
S'/home/ubuntu/AAS/data/capstone_data/unsup_mix/mix_154.wav'
p1587
sg12
F292.22929705215421
sg13
I44100
sbag4
(g5
g6
NtRp1588
(dp1589
g9
I2
sg10
S'/home/ubuntu/AAS/data/capstone_data/unsup_mix/mix_155.wav'
p1590
sg12
F256.36000000000001
sg13
I44100
sbag4
(g5
g6
NtRp1591
(dp1592
g9
I2
sg10
S'/home/ubuntu/AAS/data/capstone_data/unsup_mix/mix_156.wav'
p1593
sg12
F272.89333333333332
sg13
I44100
sbag4
(g5
g6
NtRp1594
(dp1595
g9
I2
sg10
S'/home/ubuntu/AAS/data/capstone_data/unsup_mix/mix_157.wav'
p1596
sg12
F443.58233560090702
sg13
I44100
sbag4
(g5
g6
NtRp1597
(dp1598
g9
I2
sg10
S'/home/ubuntu/AAS/data/capstone_data/unsup_mix/mix_158.wav'
p1599
sg12
F172.80000000000001
sg13
I44100
sbag4
(g5
g6
NtRp1600
(dp1601
g9
I2
sg10
S'/home/ubuntu/AAS/data/capstone_data/unsup_mix/mix_159.wav'
p1602
sg12
F544
sg13
I44100
sbag4
(g5
g6
NtRp1603
(dp1604
g9
I2
sg10
S'/home/ubuntu/AAS/data/capstone_data/unsup_mix/mix_160.wav'
p1605
sg12
F407.37836734693877
sg13
I44100
sbag4
(g5
g6
NtRp1606
(dp1607
g9
I2
sg10
S'/home/ubuntu/AAS/data/capstone_data/unsup_mix/mix_161.wav'
p1608
sg12
F346.62356009070294
sg13
I44100
sbag4
(g5
g6
NtRp1609
(dp1610
g9
I2
sg10
S'/home/ubuntu/AAS/data/capstone_data/unsup_mix/mix_162.wav'
p1611
sg12
F202.89331065759637
sg13
I44100
sbag4
(g5
g6
NtRp1612
(dp1613
g9
I2
sg10
S'/home/ubuntu/AAS/data/capstone_data/unsup_mix/mix_163.wav'
p1614
sg12
F416.64079365079363
sg13
I44100
sbag4
(g5
g6
NtRp1615
(dp1616
g9
I2
sg10
S'/home/ubuntu/AAS/data/capstone_data/unsup_mix/mix_164.wav'
p1617
sg12
F408.58122448979594
sg13
I44100
sbag4
(g5
g6
NtRp1618
(dp1619
g9
I2
sg10
S'/home/ubuntu/AAS/data/capstone_data/unsup_mix/mix_165.wav'
p1620
sg12
F203.24544217687074
sg13
I44100
sbag4
(g5
g6
NtRp1621
(dp1622
g9
I2
sg10
S'/home/ubuntu/AAS/data/capstone_data/unsup_mix/mix_166.wav'
p1623
sg12
F199.97027210884355
sg13
I44100
sbag4
(g5
g6
NtRp1624
(dp1625
g9
I2
sg10
S'/home/ubuntu/AAS/data/capstone_data/unsup_mix/mix_167.wav'
p1626
sg12
F300.44
sg13
I44100
sbag4
(g5
g6
NtRp1627
(dp1628
g9
I2
sg10
S'/home/ubuntu/AAS/data/capstone_data/unsup_mix/mix_168.wav'
p1629
sg12
F242.04002267573696
sg13
I44100
sbag4
(g5
g6
NtRp1630
(dp1631
g9
I2
sg10
S'/home/ubuntu/AAS/data/capstone_data/unsup_mix/mix_169.wav'
p1632
sg12
F406.7265986394558
sg13
I44100
sbag4
(g5
g6
NtRp1633
(dp1634
g9
I2
sg10
S'/home/ubuntu/AAS/data/capstone_data/unsup_mix/mix_170.wav'
p1635
sg12
F493.4678911564626
sg13
I44100
sbag4
(g5
g6
NtRp1636
(dp1637
g9
I2
sg10
S'/home/ubuntu/AAS/data/capstone_data/unsup_mix/mix_171.wav'
p1638
sg12
F345.1250113378685
sg13
I44100
sbag4
(g5
g6
NtRp1639
(dp1640
g9
I2
sg10
S'/home/ubuntu/AAS/data/capstone_data/unsup_mix/mix_172.wav'
p1641
sg12
F312.81530612244899
sg13
I44100
sbaa(lp1642
g4
(g5
g6
NtRp1643
(dp1644
g9
I2
sg10
S'/home/ubuntu/AAS/data/capstone_data/unsup_acc/acc_1.wav'
p1645
sg12
F328.89501133786848
sg13
I44100
sbag4
(g5
g6
NtRp1646
(dp1647
g9
I2
sg10
S'/home/ubuntu/AAS/data/capstone_data/unsup_acc/acc_2.wav'
p1648
sg12
F291.66666666666669
sg13
I44100
sbag4
(g5
g6
NtRp1649
(dp1650
g9
I2
sg10
S'/home/ubuntu/AAS/data/capstone_data/unsup_acc/acc_3.wav'
p1651
sg12
F201.5618820861678
sg13
I44100
sbag4
(g5
g6
NtRp1652
(dp1653
g9
I2
sg10
S'/home/ubuntu/AAS/data/capstone_data/unsup_acc/acc_4.wav'
p1654
sg12
F206.98031746031745
sg13
I44100
sbag4
(g5
g6
NtRp1655
(dp1656
g9
I2
sg10
S'/home/ubuntu/AAS/data/capstone_data/unsup_acc/acc_5.wav'
p1657
sg12
F249.60002267573697
sg13
I44100
sbag4
(g5
g6
NtRp1658
(dp1659
g9
I2
sg10
S'/home/ubuntu/AAS/data/capstone_data/unsup_acc/acc_6.wav'
p1660
sg12
F216.86748299319729
sg13
I44100
sbag4
(g5
g6
NtRp1661
(dp1662
g9
I2
sg10
S'/home/ubuntu/AAS/data/capstone_data/unsup_acc/acc_7.wav'
p1663
sg12
F192.27274376417233
sg13
I44100
sbag4
(g5
g6
NtRp1664
(dp1665
g9
I2
sg10
S'/home/ubuntu/AAS/data/capstone_data/unsup_acc/acc_8.wav'
p1666
sg12
F222.00002267573697
sg13
I44100
sbag4
(g5
g6
NtRp1667
(dp1668
g9
I2
sg10
S'/home/ubuntu/AAS/data/capstone_data/unsup_acc/acc_9.wav'
p1669
sg12
F189.09092970521542
sg13
I44100
sbag4
(g5
g6
NtRp1670
(dp1671
g9
I2
sg10
S'/home/ubuntu/AAS/data/capstone_data/unsup_acc/acc_10.wav'
p1672
sg12
F189.17984126984126
sg13
I44100
sbag4
(g5
g6
NtRp1673
(dp1674
g9
I2
sg10
S'/home/ubuntu/AAS/data/capstone_data/unsup_acc/acc_11.wav'
p1675
sg12
F294.85714285714283
sg13
I44100
sbag4
(g5
g6
NtRp1676
(dp1677
g9
I2
sg10
S'/home/ubuntu/AAS/data/capstone_data/unsup_acc/acc_12.wav'
p1678
sg12
F237.47999999999999
sg13
I44100
sbag4
(g5
g6
NtRp1679
(dp1680
g9
I2
sg10
S'/home/ubuntu/AAS/data/capstone_data/unsup_acc/acc_13.wav'
p1681
sg12
F7.7419501133786852
sg13
I44100
sbag4
(g5
g6
NtRp1682
(dp1683
g9
I1
sg10
S'/home/ubuntu/AAS/data/capstone_data/unsup_acc/acc_14.wav'
p1684
sg12
F208.03918367346938
sg13
I44100
sbag4
(g5
g6
NtRp1685
(dp1686
g9
I2
sg10
S'/home/ubuntu/AAS/data/capstone_data/unsup_acc/acc_15.wav'
p1687
sg12
F285.25714285714287
sg13
I44100
sbag4
(g5
g6
NtRp1688
(dp1689
g9
I2
sg10
S'/home/ubuntu/AAS/data/capstone_data/unsup_acc/acc_16.wav'
p1690
sg12
F236.86956916099774
sg13
I44100
sbag4
(g5
g6
NtRp1691
(dp1692
g9
I2
sg10
S'/home/ubuntu/AAS/data/capstone_data/unsup_acc/acc_17.wav'
p1693
sg12
F272.00002267573694
sg13
I44100
sbag4
(g5
g6
NtRp1694
(dp1695
g9
I2
sg10
S'/home/ubuntu/AAS/data/capstone_data/unsup_acc/acc_18.wav'
p1696
sg12
F240
sg13
I44100
sbag4
(g5
g6
NtRp1697
(dp1698
g9
I2
sg10
S'/home/ubuntu/AAS/data/capstone_data/unsup_acc/acc_19.wav'
p1699
sg12
F197.68984126984128
sg13
I44100
sbag4
(g5
g6
NtRp1700
(dp1701
g9
I2
sg10
S'/home/ubuntu/AAS/data/capstone_data/unsup_acc/acc_20.wav'
p1702
sg12
F200.00002267573697
sg13
I44100
sbag4
(g5
g6
NtRp1703
(dp1704
g9
I2
sg10
S'/home/ubuntu/AAS/data/capstone_data/unsup_acc/acc_21.wav'
p1705
sg12
F306.66668934240363
sg13
I44100
sbag4
(g5
g6
NtRp1706
(dp1707
g9
I2
sg10
S'/home/ubuntu/AAS/data/capstone_data/unsup_acc/acc_22.wav'
p1708
sg12
F274
sg13
I44100
sbag4
(g5
g6
NtRp1709
(dp1710
g9
I2
sg10
S'/home/ubuntu/AAS/data/capstone_data/unsup_acc/acc_23.wav'
p1711
sg12
F207.27274376417233
sg13
I44100
sbag4
(g5
g6
NtRp1712
(dp1713
g9
I2
sg10
S'/home/ubuntu/AAS/data/capstone_data/unsup_acc/acc_24.wav'
p1714
sg12
F242.57142857142858
sg13
I44100
sbag4
(g5
g6
NtRp1715
(dp1716
g9
I2
sg10
S'/home/ubuntu/AAS/data/capstone_data/unsup_acc/acc_25.wav'
p1717
sg12
F29.538458049886621
sg13
I44100
sbag4
(g5
g6
NtRp1718
(dp1719
g9
I1
sg10
S'/home/ubuntu/AAS/data/capstone_data/unsup_acc/acc_26.wav'
p1720
sg12
F329.14285714285717
sg13
I44100
sbag4
(g5
g6
NtRp1721
(dp1722
g9
I2
sg10
S'/home/ubuntu/AAS/data/capstone_data/unsup_acc/acc_27.wav'
p1723
sg12
F7.7419501133786852
sg13
I44100
sbag4
(g5
g6
NtRp1724
(dp1725
g9
I2
sg10
S'/home/ubuntu/AAS/data/capstone_data/unsup_acc/acc_28.wav'
p1726
sg12
F7.7419501133786852
sg13
I44100
sbag4
(g5
g6
NtRp1727
(dp1728
g9
I2
sg10
S'/home/ubuntu/AAS/data/capstone_data/unsup_acc/acc_29.wav'
p1729
sg12
F9.6774149659863937
sg13
I44100
sbag4
(g5
g6
NtRp1730
(dp1731
g9
I2
sg10
S'/home/ubuntu/AAS/data/capstone_data/unsup_acc/acc_30.wav'
p1732
sg12
F15.483877551020408
sg13
I44100
sbag4
(g5
g6
NtRp1733
(dp1734
g9
I2
sg10
S'/home/ubuntu/AAS/data/capstone_data/unsup_acc/acc_31.wav'
p1735
sg12
F8
sg13
I44100
sbag4
(g5
g6
NtRp1736
(dp1737
g9
I2
sg10
S'/home/ubuntu/AAS/data/capstone_data/unsup_acc/acc_32.wav'
p1738
sg12
F234
sg13
I44100
sbag4
(g5
g6
NtRp1739
(dp1740
g9
I2
sg10
S'/home/ubuntu/AAS/data/capstone_data/unsup_acc/acc_33.wav'
p1741
sg12
F253.5
sg13
I44100
sbag4
(g5
g6
NtRp1742
(dp1743
g9
I2
sg10
S'/home/ubuntu/AAS/data/capstone_data/unsup_acc/acc_34.wav'
p1744
sg12
F200.00002267573697
sg13
I44100
sbag4
(g5
g6
NtRp1745
(dp1746
g9
I2
sg10
S'/home/ubuntu/AAS/data/capstone_data/unsup_acc/acc_35.wav'
p1747
sg12
F354.66668934240363
sg13
I44100
sbag4
(g5
g6
NtRp1748
(dp1749
g9
I2
sg10
S'/home/ubuntu/AAS/data/capstone_data/unsup_acc/acc_36.wav'
p1750
sg12
F198.5
sg13
I44100
sbag4
(g5
g6
NtRp1751
(dp1752
g9
I1
sg10
S'/home/ubuntu/AAS/data/capstone_data/unsup_acc/acc_37.wav'
p1753
sg12
F194.03755102040816
sg13
I44100
sbag4
(g5
g6
NtRp1754
(dp1755
g9
I2
sg10
S'/home/ubuntu/AAS/data/capstone_data/unsup_acc/acc_38.wav'
p1756
sg12
F198.5
sg13
I44100
sbag4
(g5
g6
NtRp1757
(dp1758
g9
I2
sg10
S'/home/ubuntu/AAS/data/capstone_data/unsup_acc/acc_39.wav'
p1759
sg12
F149.33335600907029
sg13
I44100
sbag4
(g5
g6
NtRp1760
(dp1761
g9
I2
sg10
S'/home/ubuntu/AAS/data/capstone_data/unsup_acc/acc_40.wav'
p1762
sg12
F378
sg13
I44100
sbag4
(g5
g6
NtRp1763
(dp1764
g9
I2
sg10
S'/home/ubuntu/AAS/data/capstone_data/unsup_acc/acc_41.wav'
p1765
sg12
F275.47827664399091
sg13
I44100
sbag4
(g5
g6
NtRp1766
(dp1767
g9
I2
sg10
S'/home/ubuntu/AAS/data/capstone_data/unsup_acc/acc_42.wav'
p1768
sg12
F15.737709750566893
sg13
I44100
sbag4
(g5
g6
NtRp1769
(dp1770
g9
I2
sg10
S'/home/ubuntu/AAS/data/capstone_data/unsup_acc/acc_43.wav'
p1771
sg12
F3.8709750566893426
sg13
I44100
sbag4
(g5
g6
NtRp1772
(dp1773
g9
I2
sg10
S'/home/ubuntu/AAS/data/capstone_data/unsup_acc/acc_44.wav'
p1774
sg12
F1.9354875283446713
sg13
I44100
sbag4
(g5
g6
NtRp1775
(dp1776
g9
I2
sg10
S'/home/ubuntu/AAS/data/capstone_data/unsup_acc/acc_45.wav'
p1777
sg12
F7.7419274376417233
sg13
I44100
sbag4
(g5
g6
NtRp1778
(dp1779
g9
I2
sg10
S'/home/ubuntu/AAS/data/capstone_data/unsup_acc/acc_46.wav'
p1780
sg12
F15.483877551020408
sg13
I44100
sbag4
(g5
g6
NtRp1781
(dp1782
g9
I2
sg10
S'/home/ubuntu/AAS/data/capstone_data/unsup_acc/acc_47.wav'
p1783
sg12
F267
sg13
I44100
sbag4
(g5
g6
NtRp1784
(dp1785
g9
I2
sg10
S'/home/ubuntu/AAS/data/capstone_data/unsup_acc/acc_48.wav'
p1786
sg12
F293.57142857142856
sg13
I44100
sbag4
(g5
g6
NtRp1787
(dp1788
g9
I2
sg10
S'/home/ubuntu/AAS/data/capstone_data/unsup_acc/acc_49.wav'
p1789
sg12
F202.56882086167801
sg13
I44100
sbag4
(g5
g6
NtRp1790
(dp1791
g9
I2
sg10
S'/home/ubuntu/AAS/data/capstone_data/unsup_acc/acc_50.wav'
p1792
sg12
F452.90321995464853
sg13
I44100
sbag4
(g5
g6
NtRp1793
(dp1794
g9
I2
sg10
S'/home/ubuntu/AAS/data/capstone_data/unsup_acc/acc_51.wav'
p1795
sg12
F230.08696145124716
sg13
I44100
sbag4
(g5
g6
NtRp1796
(dp1797
g9
I2
sg10
S'/home/ubuntu/AAS/data/capstone_data/unsup_acc/acc_52.wav'
p1798
sg12
F203.19999999999999
sg13
I44100
sbag4
(g5
g6
NtRp1799
(dp1800
g9
I2
sg10
S'/home/ubuntu/AAS/data/capstone_data/unsup_acc/acc_53.wav'
p1801
sg12
F301.75
sg13
I44100
sbag4
(g5
g6
NtRp1802
(dp1803
g9
I2
sg10
S'/home/ubuntu/AAS/data/capstone_data/unsup_acc/acc_54.wav'
p1804
sg12
F346.93331065759639
sg13
I44100
sbag4
(g5
g6
NtRp1805
(dp1806
g9
I2
sg10
S'/home/ubuntu/AAS/data/capstone_data/unsup_acc/acc_55.wav'
p1807
sg12
F198.60002267573697
sg13
I44100
sbag4
(g5
g6
NtRp1808
(dp1809
g9
I2
sg10
S'/home/ubuntu/AAS/data/capstone_data/unsup_acc/acc_56.wav'
p1810
sg12
F196
sg13
I44100
sbag4
(g5
g6
NtRp1811
(dp1812
g9
I2
sg10
S'/home/ubuntu/AAS/data/capstone_data/unsup_acc/acc_57.wav'
p1813
sg12
F229.89473922902494
sg13
I44100
sbag4
(g5
g6
NtRp1814
(dp1815
g9
I2
sg10
S'/home/ubuntu/AAS/data/capstone_data/unsup_acc/acc_58.wav'
p1816
sg12
F330
sg13
I44100
sbag4
(g5
g6
NtRp1817
(dp1818
g9
I2
sg10
S'/home/ubuntu/AAS/data/capstone_data/unsup_acc/acc_59.wav'
p1819
sg12
F24
sg13
I44100
sbag4
(g5
g6
NtRp1820
(dp1821
g9
I2
sg10
S'/home/ubuntu/AAS/data/capstone_data/unsup_acc/acc_60.wav'
p1822
sg12
F3.8709750566893426
sg13
I44100
sbag4
(g5
g6
NtRp1823
(dp1824
g9
I2
sg10
S'/home/ubuntu/AAS/data/capstone_data/unsup_acc/acc_61.wav'
p1825
sg12
F249.64285714285714
sg13
I44100
sbag4
(g5
g6
NtRp1826
(dp1827
g9
I2
sg10
S'/home/ubuntu/AAS/data/capstone_data/unsup_acc/acc_62.wav'
p1828
sg12
F7.8688662131519278
sg13
I44100
sbag4
(g5
g6
NtRp1829
(dp1830
g9
I2
sg10
S'/home/ubuntu/AAS/data/capstone_data/unsup_acc/acc_63.wav'
p1831
sg12
F169.68154195011337
sg13
I44100
sbag4
(g5
g6
NtRp1832
(dp1833
g9
I2
sg10
S'/home/ubuntu/AAS/data/capstone_data/unsup_acc/acc_64.wav'
p1834
sg12
F203.99975056689343
sg13
I44100
sbag4
(g5
g6
NtRp1835
(dp1836
g9
I2
sg10
S'/home/ubuntu/AAS/data/capstone_data/unsup_acc/acc_65.wav'
p1837
sg12
F208.01006802721088
sg13
I44100
sbag4
(g5
g6
NtRp1838
(dp1839
g9
I2
sg10
S'/home/ubuntu/AAS/data/capstone_data/unsup_acc/acc_66.wav'
p1840
sg12
F8
sg13
I44100
sbag4
(g5
g6
NtRp1841
(dp1842
g9
I2
sg10
S'/home/ubuntu/AAS/data/capstone_data/unsup_acc/acc_67.wav'
p1843
sg12
F237.14287981859411
sg13
I44100
sbag4
(g5
g6
NtRp1844
(dp1845
g9
I2
sg10
S'/home/ubuntu/AAS/data/capstone_data/unsup_acc/acc_68.wav'
p1846
sg12
F319.28571428571428
sg13
I44100
sbag4
(g5
g6
NtRp1847
(dp1848
g9
I2
sg10
S'/home/ubuntu/AAS/data/capstone_data/unsup_acc/acc_69.wav'
p1849
sg12
F3.8709750566893426
sg13
I44100
sbag4
(g5
g6
NtRp1850
(dp1851
g9
I2
sg10
S'/home/ubuntu/AAS/data/capstone_data/unsup_acc/acc_70.wav'
p1852
sg12
F3.8709750566893426
sg13
I44100
sbag4
(g5
g6
NtRp1853
(dp1854
g9
I2
sg10
S'/home/ubuntu/AAS/data/capstone_data/unsup_acc/acc_71.wav'
p1855
sg12
F363.69231292517009
sg13
I44100
sbag4
(g5
g6
NtRp1856
(dp1857
g9
I2
sg10
S'/home/ubuntu/AAS/data/capstone_data/unsup_acc/acc_72.wav'
p1858
sg12
F310.58823129251698
sg13
I44100
sbag4
(g5
g6
NtRp1859
(dp1860
g9
I2
sg10
S'/home/ubuntu/AAS/data/capstone_data/unsup_acc/acc_73.wav'
p1861
sg12
F176.44739229024944
sg13
I44100
sbag4
(g5
g6
NtRp1862
(dp1863
g9
I2
sg10
S'/home/ubuntu/AAS/data/capstone_data/unsup_acc/acc_74.wav'
p1864
sg12
F155.11113378684809
sg13
I44100
sbag4
(g5
g6
NtRp1865
(dp1866
g9
I2
sg10
S'/home/ubuntu/AAS/data/capstone_data/unsup_acc/acc_75.wav'
p1867
sg12
F198
sg13
I44100
sbag4
(g5
g6
NtRp1868
(dp1869
g9
I2
sg10
S'/home/ubuntu/AAS/data/capstone_data/unsup_acc/acc_76.wav'
p1870
sg12
F168.5526530612245
sg13
I44100
sbag4
(g5
g6
NtRp1871
(dp1872
g9
I2
sg10
S'/home/ubuntu/AAS/data/capstone_data/unsup_acc/acc_77.wav'
p1873
sg12
F264
sg13
I44100
sbag4
(g5
g6
NtRp1874
(dp1875
g9
I2
sg10
S'/home/ubuntu/AAS/data/capstone_data/unsup_acc/acc_78.wav'
p1876
sg12
F217.19999999999999
sg13
I44100
sbag4
(g5
g6
NtRp1877
(dp1878
g9
I2
sg10
S'/home/ubuntu/AAS/data/capstone_data/unsup_acc/acc_79.wav'
p1879
sg12
F15.483877551020408
sg13
I44100
sbag4
(g5
g6
NtRp1880
(dp1881
g9
I2
sg10
S'/home/ubuntu/AAS/data/capstone_data/unsup_acc/acc_80.wav'
p1882
sg12
F7.7419501133786852
sg13
I44100
sbag4
(g5
g6
NtRp1883
(dp1884
g9
I2
sg10
S'/home/ubuntu/AAS/data/capstone_data/unsup_acc/acc_81.wav'
p1885
sg12
F3.8709750566893426
sg13
I44100
sbag4
(g5
g6
NtRp1886
(dp1887
g9
I2
sg10
S'/home/ubuntu/AAS/data/capstone_data/unsup_acc/acc_82.wav'
p1888
sg12
F29.538458049886621
sg13
I44100
sbag4
(g5
g6
NtRp1889
(dp1890
g9
I2
sg10
S'/home/ubuntu/AAS/data/capstone_data/unsup_acc/acc_83.wav'
p1891
sg12
F261.06775510204079
sg13
I44100
sbag4
(g5
g6
NtRp1892
(dp1893
g9
I2
sg10
S'/home/ubuntu/AAS/data/capstone_data/unsup_acc/acc_84.wav'
p1894
sg12
F260.68965986394556
sg13
I44100
sbag4
(g5
g6
NtRp1895
(dp1896
g9
I2
sg10
S'/home/ubuntu/AAS/data/capstone_data/unsup_acc/acc_85.wav'
p1897
sg12
F376.69566893424036
sg13
I44100
sbag4
(g5
g6
NtRp1898
(dp1899
g9
I2
sg10
S'/home/ubuntu/AAS/data/capstone_data/unsup_acc/acc_86.wav'
p1900
sg12
F159.47369614512471
sg13
I44100
sbag4
(g5
g6
NtRp1901
(dp1902
g9
I2
sg10
S'/home/ubuntu/AAS/data/capstone_data/unsup_acc/acc_87.wav'
p1903
sg12
F209.58904761904762
sg13
I44100
sbag4
(g5
g6
NtRp1904
(dp1905
g9
I2
sg10
S'/home/ubuntu/AAS/data/capstone_data/unsup_acc/acc_88.wav'
p1906
sg12
F224.25
sg13
I44100
sbag4
(g5
g6
NtRp1907
(dp1908
g9
I2
sg10
S'/home/ubuntu/AAS/data/capstone_data/unsup_acc/acc_89.wav'
p1909
sg12
F199
sg13
I44100
sbag4
(g5
g6
NtRp1910
(dp1911
g9
I2
sg10
S'/home/ubuntu/AAS/data/capstone_data/unsup_acc/acc_90.wav'
p1912
sg12
F198.66668934240363
sg13
I44100
sbag4
(g5
g6
NtRp1913
(dp1914
g9
I2
sg10
S'/home/ubuntu/AAS/data/capstone_data/unsup_acc/acc_91.wav'
p1915
sg12
F174.47369614512471
sg13
I44100
sbag4
(g5
g6
NtRp1916
(dp1917
g9
I2
sg10
S'/home/ubuntu/AAS/data/capstone_data/unsup_acc/acc_92.wav'
p1918
sg12
F216
sg13
I44100
sbag4
(g5
g6
NtRp1919
(dp1920
g9
I2
sg10
S'/home/ubuntu/AAS/data/capstone_data/unsup_acc/acc_93.wav'
p1921
sg12
F181.22448979591837
sg13
I44100
sbag4
(g5
g6
NtRp1922
(dp1923
g9
I2
sg10
S'/home/ubuntu/AAS/data/capstone_data/unsup_acc/acc_94.wav'
p1924
sg12
F3.9344444444444444
sg13
I44100
sbag4
(g5
g6
NtRp1925
(dp1926
g9
I2
sg10
S'/home/ubuntu/AAS/data/capstone_data/unsup_acc/acc_95.wav'
p1927
sg12
F421.07142857142856
sg13
I44100
sbag4
(g5
g6
NtRp1928
(dp1929
g9
I2
sg10
S'/home/ubuntu/AAS/data/capstone_data/unsup_acc/acc_96.wav'
p1930
sg12
F206.0526530612245
sg13
I44100
sbag4
(g5
g6
NtRp1931
(dp1932
g9
I2
sg10
S'/home/ubuntu/AAS/data/capstone_data/unsup_acc/acc_97.wav'
p1933
sg12
F200.52632653061224
sg13
I44100
sbag4
(g5
g6
NtRp1934
(dp1935
g9
I2
sg10
S'/home/ubuntu/AAS/data/capstone_data/unsup_acc/acc_98.wav'
p1936
sg12
F190.65791383219954
sg13
I44100
sbag4
(g5
g6
NtRp1937
(dp1938
g9
I2
sg10
S'/home/ubuntu/AAS/data/capstone_data/unsup_acc/acc_99.wav'
p1939
sg12
F189.07895691609977
sg13
I44100
sbag4
(g5
g6
NtRp1940
(dp1941
g9
I2
sg10
S'/home/ubuntu/AAS/data/capstone_data/unsup_acc/acc_100.wav'
p1942
sg12
F355.63637188208617
sg13
I44100
sbag4
(g5
g6
NtRp1943
(dp1944
g9
I2
sg10
S'/home/ubuntu/AAS/data/capstone_data/unsup_acc/acc_101.wav'
p1945
sg12
F3.8709750566893426
sg13
I44100
sbag4
(g5
g6
NtRp1946
(dp1947
g9
I2
sg10
S'/home/ubuntu/AAS/data/capstone_data/unsup_acc/acc_102.wav'
p1948
sg12
F3.8709750566893426
sg13
I44100
sbag4
(g5
g6
NtRp1949
(dp1950
g9
I2
sg10
S'/home/ubuntu/AAS/data/capstone_data/unsup_acc/acc_103.wav'
p1951
sg12
F7.7419501133786852
sg13
I44100
sbag4
(g5
g6
NtRp1952
(dp1953
g9
I2
sg10
S'/home/ubuntu/AAS/data/capstone_data/unsup_acc/acc_104.wav'
p1954
sg12
F421.07142857142856
sg13
I44100
sbag4
(g5
g6
NtRp1955
(dp1956
g9
I2
sg10
S'/home/ubuntu/AAS/data/capstone_data/unsup_acc/acc_105.wav'
p1957
sg12
F264
sg13
I44100
sbag4
(g5
g6
NtRp1958
(dp1959
g9
I2
sg10
S'/home/ubuntu/AAS/data/capstone_data/unsup_acc/acc_106.wav'
p1960
sg12
F193.69566893424036
sg13
I44100
sbag4
(g5
g6
NtRp1961
(dp1962
g9
I2
sg10
S'/home/ubuntu/AAS/data/capstone_data/unsup_acc/acc_107.wav'
p1963
sg12
F184.47761904761904
sg13
I44100
sbag4
(g5
g6
NtRp1964
(dp1965
g9
I2
sg10
S'/home/ubuntu/AAS/data/capstone_data/unsup_acc/acc_108.wav'
p1966
sg12
F332
sg13
I44100
sbag4
(g5
g6
NtRp1967
(dp1968
g9
I2
sg10
S'/home/ubuntu/AAS/data/capstone_data/unsup_acc/acc_109.wav'
p1969
sg12
F282.30997732426306
sg13
I44100
sbag4
(g5
g6
NtRp1970
(dp1971
g9
I2
sg10
S'/home/ubuntu/AAS/data/capstone_data/unsup_acc/acc_110.wav'
p1972
sg12
F7.7419274376417233
sg13
I44100
sbag4
(g5
g6
NtRp1973
(dp1974
g9
I2
sg10
S'/home/ubuntu/AAS/data/capstone_data/unsup_acc/acc_111.wav'
p1975
sg12
F8
sg13
I44100
sbag4
(g5
g6
NtRp1976
(dp1977
g9
I2
sg10
S'/home/ubuntu/AAS/data/capstone_data/unsup_acc/acc_112.wav'
p1978
sg12
F29.538458049886621
sg13
I44100
sbag4
(g5
g6
NtRp1979
(dp1980
g9
I2
sg10
S'/home/ubuntu/AAS/data/capstone_data/unsup_acc/acc_113.wav'
p1981
sg12
F260.68965986394556
sg13
I44100
sbag4
(g5
g6
NtRp1982
(dp1983
g9
I2
sg10
S'/home/ubuntu/AAS/data/capstone_data/unsup_acc/acc_114.wav'
p1984
sg12
F353.27999999999997
sg13
I44100
sbag4
(g5
g6
NtRp1985
(dp1986
g9
I2
sg10
S'/home/ubuntu/AAS/data/capstone_data/unsup_acc/acc_115.wav'
p1987
sg12
F163.81580498866214
sg13
I44100
sbag4
(g5
g6
NtRp1988
(dp1989
g9
I2
sg10
S'/home/ubuntu/AAS/data/capstone_data/unsup_acc/acc_116.wav'
p1990
sg12
F180.00002267573697
sg13
I44100
sbag4
(g5
g6
NtRp1991
(dp1992
g9
I2
sg10
S'/home/ubuntu/AAS/data/capstone_data/unsup_acc/acc_117.wav'
p1993
sg12
F256.94120181405896
sg13
I44100
sbag4
(g5
g6
NtRp1994
(dp1995
g9
I2
sg10
S'/home/ubuntu/AAS/data/capstone_data/unsup_acc/acc_118.wav'
p1996
sg12
F190.65791383219954
sg13
I44100
sbag4
(g5
g6
NtRp1997
(dp1998
g9
I2
sg10
S'/home/ubuntu/AAS/data/capstone_data/unsup_acc/acc_119.wav'
p1999
sg12
F293.57142857142856
sg13
I44100
sbag4
(g5
g6
NtRp2000
(dp2001
g9
I2
sg10
S'/home/ubuntu/AAS/data/capstone_data/unsup_acc/acc_120.wav'
p2002
sg12
F376.69566893424036
sg13
I44100
sbag4
(g5
g6
NtRp2003
(dp2004
g9
I2
sg10
S'/home/ubuntu/AAS/data/capstone_data/unsup_acc/acc_121.wav'
p2005
sg12
F319.28571428571428
sg13
I44100
sbag4
(g5
g6
NtRp2006
(dp2007
g9
I2
sg10
S'/home/ubuntu/AAS/data/capstone_data/unsup_acc/acc_122.wav'
p2008
sg12
F8
sg13
I44100
sbag4
(g5
g6
NtRp2009
(dp2010
g9
I2
sg10
S'/home/ubuntu/AAS/data/capstone_data/unsup_acc/acc_123.wav'
p2011
sg12
F249.64285714285714
sg13
I44100
sbag4
(g5
g6
NtRp2012
(dp2013
g9
I2
sg10
S'/home/ubuntu/AAS/data/capstone_data/unsup_acc/acc_124.wav'
p2014
sg12
F264.88888888888891
sg13
I44100
sbag4
(g5
g6
NtRp2015
(dp2016
g9
I2
sg10
S'/home/ubuntu/AAS/data/capstone_data/unsup_acc/acc_125.wav'
p2017
sg12
F206.20691609977325
sg13
I44100
sbag4
(g5
g6
NtRp2018
(dp2019
g9
I2
sg10
S'/home/ubuntu/AAS/data/capstone_data/unsup_acc/acc_126.wav'
p2020
sg12
F213.73024943310656
sg13
I44100
sbag4
(g5
g6
NtRp2021
(dp2022
g9
I2
sg10
S'/home/ubuntu/AAS/data/capstone_data/unsup_acc/acc_127.wav'
p2023
sg12
F203.44829931972788
sg13
I44100
sbag4
(g5
g6
NtRp2024
(dp2025
g9
I2
sg10
S'/home/ubuntu/AAS/data/capstone_data/unsup_acc/acc_128.wav'
p2026
sg12
F16
sg13
I44100
sbag4
(g5
g6
NtRp2027
(dp2028
g9
I2
sg10
S'/home/ubuntu/AAS/data/capstone_data/unsup_acc/acc_129.wav'
p2029
sg12
F3.8709750566893426
sg13
I44100
sbag4
(g5
g6
NtRp2030
(dp2031
g9
I2
sg10
S'/home/ubuntu/AAS/data/capstone_data/unsup_acc/acc_130.wav'
p2032
sg12
F218.40002267573695
sg13
I44100
sbag4
(g5
g6
NtRp2033
(dp2034
g9
I2
sg10
S'/home/ubuntu/AAS/data/capstone_data/unsup_acc/acc_131.wav'
p2035
sg12
F199.19999999999999
sg13
I44100
sbag4
(g5
g6
NtRp2036
(dp2037
g9
I2
sg10
S'/home/ubuntu/AAS/data/capstone_data/unsup_acc/acc_132.wav'
p2038
sg12
F291.11111111111109
sg13
I44100
sbag4
(g5
g6
NtRp2039
(dp2040
g9
I2
sg10
S'/home/ubuntu/AAS/data/capstone_data/unsup_acc/acc_133.wav'
p2041
sg12
F3.8709750566893426
sg13
I44100
sbag4
(g5
g6
NtRp2042
(dp2043
g9
I2
sg10
S'/home/ubuntu/AAS/data/capstone_data/unsup_acc/acc_134.wav'
p2044
sg12
F7.6289795918367345
sg13
I44100
sbag4
(g5
g6
NtRp2045
(dp2046
g9
I2
sg10
S'/home/ubuntu/AAS/data/capstone_data/unsup_acc/acc_135.wav'
p2047
sg12
F447.75
sg13
I44100
sbag4
(g5
g6
NtRp2048
(dp2049
g9
I2
sg10
S'/home/ubuntu/AAS/data/capstone_data/unsup_acc/acc_136.wav'
p2050
sg12
F27.428571428571427
sg13
I44100
sbag4
(g5
g6
NtRp2051
(dp2052
g9
I2
sg10
S'/home/ubuntu/AAS/data/capstone_data/unsup_acc/acc_137.wav'
p2053
sg12
F369.75
sg13
I44100
sbag4
(g5
g6
NtRp2054
(dp2055
g9
I2
sg10
S'/home/ubuntu/AAS/data/capstone_data/unsup_acc/acc_138.wav'
p2056
sg12
F212.25
sg13
I44100
sbag4
(g5
g6
NtRp2057
(dp2058
g9
I2
sg10
S'/home/ubuntu/AAS/data/capstone_data/unsup_acc/acc_139.wav'
p2059
sg12
F15.483877551020408
sg13
I44100
sbag4
(g5
g6
NtRp2060
(dp2061
g9
I2
sg10
S'/home/ubuntu/AAS/data/capstone_data/unsup_acc/acc_140.wav'
p2062
sg12
F214.58825396825398
sg13
I44100
sbag4
(g5
g6
NtRp2063
(dp2064
g9
I2
sg10
S'/home/ubuntu/AAS/data/capstone_data/unsup_acc/acc_141.wav'
p2065
sg12
F484.17392290249433
sg13
I44100
sbag4
(g5
g6
NtRp2066
(dp2067
g9
I2
sg10
S'/home/ubuntu/AAS/data/capstone_data/unsup_acc/acc_142.wav'
p2068
sg12
F250.75
sg13
I44100
sbag4
(g5
g6
NtRp2069
(dp2070
g9
I2
sg10
S'/home/ubuntu/AAS/data/capstone_data/unsup_acc/acc_143.wav'
p2071
sg12
F7.8688662131519278
sg13
I44100
sbag4
(g5
g6
NtRp2072
(dp2073
g9
I2
sg10
S'/home/ubuntu/AAS/data/capstone_data/unsup_acc/acc_144.wav'
p2074
sg12
F193.5
sg13
I44100
sbag4
(g5
g6
NtRp2075
(dp2076
g9
I2
sg10
S'/home/ubuntu/AAS/data/capstone_data/unsup_acc/acc_145.wav'
p2077
sg12
F210
sg13
I44100
sbag4
(g5
g6
NtRp2078
(dp2079
g9
I1
sg10
S'/home/ubuntu/AAS/data/capstone_data/unsup_acc/acc_146.wav'
p2080
sg12
F102.85714285714286
sg13
I44100
sbag4
(g5
g6
NtRp2081
(dp2082
g9
I2
sg10
S'/home/ubuntu/AAS/data/capstone_data/unsup_acc/acc_147.wav'
p2083
sg12
F176.45820861678004
sg13
I44100
sbag4
(g5
g6
NtRp2084
(dp2085
g9
I2
sg10
S'/home/ubuntu/AAS/data/capstone_data/unsup_acc/acc_148.wav'
p2086
sg12
F364.8271882086168
sg13
I44100
sbag4
(g5
g6
NtRp2087
(dp2088
g9
I1
sg10
S'/home/ubuntu/AAS/data/capstone_data/unsup_acc/acc_149.wav'
p2089
sg12
F54
sg13
I44100
sbag4
(g5
g6
NtRp2090
(dp2091
g9
I2
sg10
S'/home/ubuntu/AAS/data/capstone_data/unsup_acc/acc_150.wav'
p2092
sg12
F231.27274376417233
sg13
I44100
sbag4
(g5
g6
NtRp2093
(dp2094
g9
I2
sg10
S'/home/ubuntu/AAS/data/capstone_data/unsup_acc/acc_151.wav'
p2095
sg12
F193.41179138321996
sg13
I44100
sbag4
(g5
g6
NtRp2096
(dp2097
g9
I2
sg10
S'/home/ubuntu/AAS/data/capstone_data/unsup_acc/acc_152.wav'
p2098
sg12
F3.8709750566893426
sg13
I44100
sbag4
(g5
g6
NtRp2099
(dp2100
g9
I2
sg10
S'/home/ubuntu/AAS/data/capstone_data/unsup_acc/acc_153.wav'
p2101
sg12
F203.07691609977323
sg13
I44100
sbag4
(g5
g6
NtRp2102
(dp2103
g9
I1
sg10
S'/home/ubuntu/AAS/data/capstone_data/unsup_acc/acc_154.wav'
p2104
sg12
F168
sg13
I44100
sbag4
(g5
g6
NtRp2105
(dp2106
g9
I2
sg10
S'/home/ubuntu/AAS/data/capstone_data/unsup_acc/acc_155.wav'
p2107
sg12
F127.45249433106576
sg13
I44100
sbag4
(g5
g6
NtRp2108
(dp2109
g9
I2
sg10
S'/home/ubuntu/AAS/data/capstone_data/unsup_acc/acc_156.wav'
p2110
sg12
F289.71428571428572
sg13
I44100
sbag4
(g5
g6
NtRp2111
(dp2112
g9
I2
sg10
S'/home/ubuntu/AAS/data/capstone_data/unsup_acc/acc_157.wav'
p2113
sg12
F299.67566893424038
sg13
I44100
sbag4
(g5
g6
NtRp2114
(dp2115
g9
I2
sg10
S'/home/ubuntu/AAS/data/capstone_data/unsup_acc/acc_158.wav'
p2116
sg12
F297.61412698412698
sg13
I44100
sbag4
(g5
g6
NtRp2117
(dp2118
g9
I1
sg10
S'/home/ubuntu/AAS/data/capstone_data/unsup_acc/acc_159.wav'
p2119
sg12
F48
sg13
I44100
sbag4
(g5
g6
NtRp2120
(dp2121
g9
I2
sg10
S'/home/ubuntu/AAS/data/capstone_data/unsup_acc/acc_160.wav'
p2122
sg12
F276.81818594104311
sg13
I44100
sbag4
(g5
g6
NtRp2123
(dp2124
g9
I2
sg10
S'/home/ubuntu/AAS/data/capstone_data/unsup_acc/acc_161.wav'
p2125
sg12
F15.483877551020408
sg13
I44100
sbag4
(g5
g6
NtRp2126
(dp2127
g9
I2
sg10
S'/home/ubuntu/AAS/data/capstone_data/unsup_acc/acc_162.wav'
p2128
sg12
F8
sg13
I44100
sbag4
(g5
g6
NtRp2129
(dp2130
g9
I2
sg10
S'/home/ubuntu/AAS/data/capstone_data/unsup_acc/acc_163.wav'
p2131
sg12
F15.483877551020408
sg13
I44100
sbag4
(g5
g6
NtRp2132
(dp2133
g9
I2
sg10
S'/home/ubuntu/AAS/data/capstone_data/unsup_acc/acc_164.wav'
p2134
sg12
F14.11766439909297
sg13
I44100
sbag4
(g5
g6
NtRp2135
(dp2136
g9
I2
sg10
S'/home/ubuntu/AAS/data/capstone_data/unsup_acc/acc_165.wav'
p2137
sg12
F279.65217687074829
sg13
I44100
sbag4
(g5
g6
NtRp2138
(dp2139
g9
I2
sg10
S'/home/ubuntu/AAS/data/capstone_data/unsup_acc/acc_166.wav'
p2140
sg12
F451.24024943310656
sg13
I44100
sbag4
(g5
g6
NtRp2141
(dp2142
g9
I2
sg10
S'/home/ubuntu/AAS/data/capstone_data/unsup_acc/acc_167.wav'
p2143
sg12
F8
sg13
I44100
sbag4
(g5
g6
NtRp2144
(dp2145
g9
I2
sg10
S'/home/ubuntu/AAS/data/capstone_data/unsup_acc/acc_168.wav'
p2146
sg12
F166.3226984126984
sg13
I44100
sbag4
(g5
g6
NtRp2147
(dp2148
g9
I2
sg10
S'/home/ubuntu/AAS/data/capstone_data/unsup_acc/acc_169.wav'
p2149
sg12
F229.26315192743763
sg13
I44100
sbag4
(g5
g6
NtRp2150
(dp2151
g9
I2
sg10
S'/home/ubuntu/AAS/data/capstone_data/unsup_acc/acc_170.wav'
p2152
sg12
F236.25
sg13
I44100
sbag4
(g5
g6
NtRp2153
(dp2154
g9
I2
sg10
S'/home/ubuntu/AAS/data/capstone_data/unsup_acc/acc_171.wav'
p2155
sg12
F114.65249433106575
sg13
I44100
sbag4
(g5
g6
NtRp2156
(dp2157
g9
I2
sg10
S'/home/ubuntu/AAS/data/capstone_data/unsup_acc/acc_172.wav'
p2158
sg12
F257.4900453514739
sg13
I44100
sbag4
(g5
g6
NtRp2159
(dp2160
g9
I2
sg10
S'/home/ubuntu/AAS/data/capstone_data/unsup_acc/acc_173.wav'
p2161
sg12
F230.5
sg13
I44100
sbag4
(g5
g6
NtRp2162
(dp2163
g9
I2
sg10
S'/home/ubuntu/AAS/data/capstone_data/unsup_acc/acc_174.wav'
p2164
sg12
F25.600000000000001
sg13
I44100
sbag4
(g5
g6
NtRp2165
(dp2166
g9
I2
sg10
S'/home/ubuntu/AAS/data/capstone_data/unsup_acc/acc_175.wav'
p2167
sg12
F15.238095238095237
sg13
I44100
sbag4
(g5
g6
NtRp2168
(dp2169
g9
I2
sg10
S'/home/ubuntu/AAS/data/capstone_data/unsup_acc/acc_176.wav'
p2170
sg12
F7.6190476190476186
sg13
I44100
sbag4
(g5
g6
NtRp2171
(dp2172
g9
I2
sg10
S'/home/ubuntu/AAS/data/capstone_data/unsup_acc/acc_177.wav'
p2173
sg12
F3.8709750566893426
sg13
I44100
sbag4
(g5
g6
NtRp2174
(dp2175
g9
I2
sg10
S'/home/ubuntu/AAS/data/capstone_data/unsup_acc/acc_178.wav'
p2176
sg12
F222.76922902494331
sg13
I44100
sbag4
(g5
g6
NtRp2177
(dp2178
g9
I2
sg10
S'/home/ubuntu/AAS/data/capstone_data/unsup_acc/acc_179.wav'
p2179
sg12
F7.7419274376417233
sg13
I44100
sbag4
(g5
g6
NtRp2180
(dp2181
g9
I2
sg10
S'/home/ubuntu/AAS/data/capstone_data/unsup_acc/acc_180.wav'
p2182
sg12
F156.03045351473924
sg13
I44100
sbag4
(g5
g6
NtRp2183
(dp2184
g9
I2
sg10
S'/home/ubuntu/AAS/data/capstone_data/unsup_acc/acc_181.wav'
p2185
sg12
F214
sg13
I44100
sbag4
(g5
g6
NtRp2186
(dp2187
g9
I2
sg10
S'/home/ubuntu/AAS/data/capstone_data/unsup_acc/acc_182.wav'
p2188
sg12
F210.61224489795919
sg13
I44100
sbag4
(g5
g6
NtRp2189
(dp2190
g9
I2
sg10
S'/home/ubuntu/AAS/data/capstone_data/unsup_acc/acc_183.wav'
p2191
sg12
F296.0206575963719
sg13
I44100
sbag4
(g5
g6
NtRp2192
(dp2193
g9
I2
sg10
S'/home/ubuntu/AAS/data/capstone_data/unsup_acc/acc_184.wav'
p2194
sg12
F230.56777777777779
sg13
I44100
sbag4
(g5
g6
NtRp2195
(dp2196
g9
I2
sg10
S'/home/ubuntu/AAS/data/capstone_data/unsup_acc/acc_185.wav'
p2197
sg12
F25.600000000000001
sg13
I44100
sbaa(lp2198
g4
(g5
g6
NtRp2199
(dp2200
g9
I2
sg10
S'/home/ubuntu/AAS/data/capstone_data/unsup_drums/drums_1.wav'
p2201
sg12
F8.3478458049886619
sg13
I44100
sbag4
(g5
g6
NtRp2202
(dp2203
g9
I2
sg10
S'/home/ubuntu/AAS/data/capstone_data/unsup_drums/drums_2.wav'
p2204
sg12
F7.3853333333333335
sg13
I48000
sbag4
(g5
g6
NtRp2205
(dp2206
g9
I2
sg10
S'/home/ubuntu/AAS/data/capstone_data/unsup_drums/drums_3.wav'
p2207
sg12
F8.5721458333333338
sg13
I48000
sbag4
(g5
g6
NtRp2208
(dp2209
g9
I2
sg10
S'/home/ubuntu/AAS/data/capstone_data/unsup_drums/drums_4.wav'
p2210
sg12
F3.8709750566893426
sg13
I44100
sbag4
(g5
g6
NtRp2211
(dp2212
g9
I2
sg10
S'/home/ubuntu/AAS/data/capstone_data/unsup_drums/drums_5.wav'
p2213
sg12
F8.5721458333333338
sg13
I48000
sbag4
(g5
g6
NtRp2214
(dp2215
g9
I2
sg10
S'/home/ubuntu/AAS/data/capstone_data/unsup_drums/drums_6.wav'
p2216
sg12
F7.3853333333333335
sg13
I48000
sbag4
(g5
g6
NtRp2217
(dp2218
g9
I2
sg10
S'/home/ubuntu/AAS/data/capstone_data/unsup_drums/drums_7.wav'
p2219
sg12
F4
sg13
I44100
sbag4
(g5
g6
NtRp2220
(dp2221
g9
I2
sg10
S'/home/ubuntu/AAS/data/capstone_data/unsup_drums/drums_8.wav'
p2222
sg12
F12
sg13
I44100
sbag4
(g5
g6
NtRp2223
(dp2224
g9
I2
sg10
S'/home/ubuntu/AAS/data/capstone_data/unsup_drums/drums_9.wav'
p2225
sg12
F8.3478458049886619
sg13
I44100
sbag4
(g5
g6
NtRp2226
(dp2227
g9
I2
sg10
S'/home/ubuntu/AAS/data/capstone_data/unsup_drums/drums_10.wav'
p2228
sg12
F16
sg13
I44100
sbag4
(g5
g6
NtRp2229
(dp2230
g9
I2
sg10
S'/home/ubuntu/AAS/data/capstone_data/unsup_drums/drums_11.wav'
p2231
sg12
F10.787229166666666
sg13
I48000
sbag4
(g5
g6
NtRp2232
(dp2233
g9
I2
sg10
S'/home/ubuntu/AAS/data/capstone_data/unsup_drums/drums_12.wav'
p2234
sg12
F8.5721458333333338
sg13
I48000
sbag4
(g5
g6
NtRp2235
(dp2236
g9
I2
sg10
S'/home/ubuntu/AAS/data/capstone_data/unsup_drums/drums_13.wav'
p2237
sg12
F7.3853333333333335
sg13
I48000
sbag4
(g5
g6
NtRp2238
(dp2239
g9
I2
sg10
S'/home/ubuntu/AAS/data/capstone_data/unsup_drums/drums_14.wav'
p2240
sg12
F5.5814058956916099
sg13
I44100
sbag4
(g5
g6
NtRp2241
(dp2242
g9
I2
sg10
S'/home/ubuntu/AAS/data/capstone_data/unsup_drums/drums_15.wav'
p2243
sg12
F7.8688662131519278
sg13
I44100
sbag4
(g5
g6
NtRp2244
(dp2245
g9
I2
sg10
S'/home/ubuntu/AAS/data/capstone_data/unsup_drums/drums_16.wav'
p2246
sg12
F7.3853333333333335
sg13
I48000
sbag4
(g5
g6
NtRp2247
(dp2248
g9
I2
sg10
S'/home/ubuntu/AAS/data/capstone_data/unsup_drums/drums_17.wav'
p2249
sg12
F4.2864374999999999
sg13
I48000
sbag4
(g5
g6
NtRp2250
(dp2251
g9
I2
sg10
S'/home/ubuntu/AAS/data/capstone_data/unsup_drums/drums_18.wav'
p2252
sg12
F3.8710204081632651
sg13
I44100
sbag4
(g5
g6
NtRp2253
(dp2254
g9
I2
sg10
S'/home/ubuntu/AAS/data/capstone_data/unsup_drums/drums_19.wav'
p2255
sg12
F5.393979166666667
sg13
I48000
sbag4
(g5
g6
NtRp2256
(dp2257
g9
I2
sg10
S'/home/ubuntu/AAS/data/capstone_data/unsup_drums/drums_20.wav'
p2258
sg12
F8
sg13
I44100
sbag4
(g5
g6
NtRp2259
(dp2260
g9
I2
sg10
S'/home/ubuntu/AAS/data/capstone_data/unsup_drums/drums_21.wav'
p2261
sg12
F16.695668934240363
sg13
I44100
sbag4
(g5
g6
NtRp2262
(dp2263
g9
I2
sg10
S'/home/ubuntu/AAS/data/capstone_data/unsup_drums/drums_22.wav'
p2264
sg12
F6.8571428571428568
sg13
I44100
sbag4
(g5
g6
NtRp2265
(dp2266
g9
I2
sg10
S'/home/ubuntu/AAS/data/capstone_data/unsup_drums/drums_23.wav'
p2267
sg12
F9.8106802721088435
sg13
I44100
sbag4
(g5
g6
NtRp2268
(dp2269
g9
I2
sg10
S'/home/ubuntu/AAS/data/capstone_data/unsup_drums/drums_24.wav'
p2270
sg12
F21.098911564625851
sg13
I44100
sbag4
(g5
g6
NtRp2271
(dp2272
g9
I2
sg10
S'/home/ubuntu/AAS/data/capstone_data/unsup_drums/drums_25.wav'
p2273
sg12
F8.5721458333333338
sg13
I48000
sbag4
(g5
g6
NtRp2274
(dp2275
g9
I2
sg10
S'/home/ubuntu/AAS/data/capstone_data/unsup_drums/drums_26.wav'
p2276
sg12
F7.3853333333333335
sg13
I48000
sbag4
(g5
g6
NtRp2277
(dp2278
g9
I2
sg10
S'/home/ubuntu/AAS/data/capstone_data/unsup_drums/drums_27.wav'
p2279
sg12
F10.787229166666666
sg13
I48000
sbag4
(g5
g6
NtRp2280
(dp2281
g9
I1
sg10
S'/home/ubuntu/AAS/data/capstone_data/unsup_drums/drums_28.wav'
p2282
sg12
F204.43428571428572
sg13
I44100
sbag4
(g5
g6
NtRp2283
(dp2284
g9
I2
sg10
S'/home/ubuntu/AAS/data/capstone_data/unsup_drums/drums_29.wav'
p2285
sg12
F10.787229166666666
sg13
I48000
sbag4
(g5
g6
NtRp2286
(dp2287
g9
I2
sg10
S'/home/ubuntu/AAS/data/capstone_data/unsup_drums/drums_30.wav'
p2288
sg12
F7.3853333333333335
sg13
I48000
sbag4
(g5
g6
NtRp2289
(dp2290
g9
I2
sg10
S'/home/ubuntu/AAS/data/capstone_data/unsup_drums/drums_31.wav'
p2291
sg12
F7.3853333333333335
sg13
I48000
sbag4
(g5
g6
NtRp2292
(dp2293
g9
I2
sg10
S'/home/ubuntu/AAS/data/capstone_data/unsup_drums/drums_32.wav'
p2294
sg12
F20.869569160997731
sg13
I44100
sbag4
(g5
g6
NtRp2295
(dp2296
g9
I2
sg10
S'/home/ubuntu/AAS/data/capstone_data/unsup_drums/drums_33.wav'
p2297
sg12
F11.144013605442177
sg13
I44100
sbag4
(g5
g6
NtRp2298
(dp2299
g9
I2
sg10
S'/home/ubuntu/AAS/data/capstone_data/unsup_drums/drums_34.wav'
p2300
sg12
F4.3636734693877548
sg13
I44100
sbag4
(g5
g6
NtRp2301
(dp2302
g9
I2
sg10
S'/home/ubuntu/AAS/data/capstone_data/unsup_drums/drums_35.wav'
p2303
sg12
F19.199999999999999
sg13
I44100
sbag4
(g5
g6
NtRp2304
(dp2305
g9
I2
sg10
S'/home/ubuntu/AAS/data/capstone_data/unsup_drums/drums_36.wav'
p2306
sg12
F7.3853333333333335
sg13
I48000
sbag4
(g5
g6
NtRp2307
(dp2308
g9
I2
sg10
S'/home/ubuntu/AAS/data/capstone_data/unsup_drums/drums_37.wav'
p2309
sg12
F8.5721458333333338
sg13
I48000
sbag4
(g5
g6
NtRp2310
(dp2311
g9
I2
sg10
S'/home/ubuntu/AAS/data/capstone_data/unsup_drums/drums_38.wav'
p2312
sg12
F11.16281179138322
sg13
I44100
sbag4
(g5
g6
NtRp2313
(dp2314
g9
I2
sg10
S'/home/ubuntu/AAS/data/capstone_data/unsup_drums/drums_39.wav'
p2315
sg12
F6.4292916666666668
sg13
I48000
sbag4
(g5
g6
NtRp2316
(dp2317
g9
I2
sg10
S'/home/ubuntu/AAS/data/capstone_data/unsup_drums/drums_40.wav'
p2318
sg12
F7.3853333333333335
sg13
I48000
sbag4
(g5
g6
NtRp2319
(dp2320
g9
I2
sg10
S'/home/ubuntu/AAS/data/capstone_data/unsup_drums/drums_41.wav'
p2321
sg12
F20.210544217687076
sg13
I44100
sbag4
(g5
g6
NtRp2322
(dp2323
g9
I2
sg10
S'/home/ubuntu/AAS/data/capstone_data/unsup_drums/drums_42.wav'
p2324
sg12
F7.3853333333333335
sg13
I48000
sbag4
(g5
g6
NtRp2325
(dp2326
g9
I2
sg10
S'/home/ubuntu/AAS/data/capstone_data/unsup_drums/drums_43.wav'
p2327
sg12
F5.0533333333333337
sg13
I48000
sbag4
(g5
g6
NtRp2328
(dp2329
g9
I2
sg10
S'/home/ubuntu/AAS/data/capstone_data/unsup_drums/drums_44.wav'
p2330
sg12
F10.507777777777777
sg13
I44100
sbag4
(g5
g6
NtRp2331
(dp2332
g9
I2
sg10
S'/home/ubuntu/AAS/data/capstone_data/unsup_drums/drums_45.wav'
p2333
sg12
F8.1363125000000007
sg13
I48000
sbag4
(g5
g6
NtRp2334
(dp2335
g9
I2
sg10
S'/home/ubuntu/AAS/data/capstone_data/unsup_drums/drums_46.wav'
p2336
sg12
F11.429270833333334
sg13
I48000
sbag4
(g5
g6
NtRp2337
(dp2338
g9
I2
sg10
S'/home/ubuntu/AAS/data/capstone_data/unsup_drums/drums_47.wav'
p2339
sg12
F6.3164999999999996
sg13
I48000
sbag4
(g5
g6
NtRp2340
(dp2341
g9
I2
sg10
S'/home/ubuntu/AAS/data/capstone_data/unsup_drums/drums_48.wav'
p2342
sg12
F7.8688662131519278
sg13
I44100
sbag4
(g5
g6
NtRp2343
(dp2344
g9
I2
sg10
S'/home/ubuntu/AAS/data/capstone_data/unsup_drums/drums_49.wav'
p2345
sg12
F8.4217708333333334
sg13
I48000
sbag4
(g5
g6
NtRp2346
(dp2347
g9
I2
sg10
S'/home/ubuntu/AAS/data/capstone_data/unsup_drums/drums_50.wav'
p2348
sg12
F11.429291666666666
sg13
I48000
sbag4
(g5
g6
NtRp2349
(dp2350
g9
I2
sg10
S'/home/ubuntu/AAS/data/capstone_data/unsup_drums/drums_51.wav'
p2351
sg12
F8.1363125000000007
sg13
I48000
sbag4
(g5
g6
NtRp2352
(dp2353
g9
I2
sg10
S'/home/ubuntu/AAS/data/capstone_data/unsup_drums/drums_52.wav'
p2354
sg12
F9.7714739229024943
sg13
I44100
sbag4
(g5
g6
NtRp2355
(dp2356
g9
I2
sg10
S'/home/ubuntu/AAS/data/capstone_data/unsup_drums/drums_53.wav'
p2357
sg12
F10.105979166666666
sg13
I48000
sbag4
(g5
g6
NtRp2358
(dp2359
g9
I2
sg10
S'/home/ubuntu/AAS/data/capstone_data/unsup_drums/drums_54.wav'
p2360
sg12
F7.3853333333333335
sg13
I48000
sbag4
(g5
g6
NtRp2361
(dp2362
g9
I2
sg10
S'/home/ubuntu/AAS/data/capstone_data/unsup_drums/drums_55.wav'
p2363
sg12
F3.8709750566893426
sg13
I44100
sbag4
(g5
g6
NtRp2364
(dp2365
g9
I2
sg10
S'/home/ubuntu/AAS/data/capstone_data/unsup_drums/drums_56.wav'
p2366
sg12
F3.8709750566893426
sg13
I44100
sbag4
(g5
g6
NtRp2367
(dp2368
g9
I2
sg10
S'/home/ubuntu/AAS/data/capstone_data/unsup_drums/drums_57.wav'
p2369
sg12
F7.5796666666666663
sg13
I48000
sbag4
(g5
g6
NtRp2370
(dp2371
g9
I2
sg10
S'/home/ubuntu/AAS/data/capstone_data/unsup_drums/drums_58.wav'
p2372
sg12
F3.6930208333333332
sg13
I48000
sbag4
(g5
g6
NtRp2373
(dp2374
g9
I2
sg10
S'/home/ubuntu/AAS/data/capstone_data/unsup_drums/drums_59.wav'
p2375
sg12
F5.5814058956916099
sg13
I44100
sbag4
(g5
g6
NtRp2376
(dp2377
g9
I2
sg10
S'/home/ubuntu/AAS/data/capstone_data/unsup_drums/drums_60.wav'
p2378
sg12
F8.4217708333333334
sg13
I48000
sbag4
(g5
g6
NtRp2379
(dp2380
g9
I2
sg10
S'/home/ubuntu/AAS/data/capstone_data/unsup_drums/drums_61.wav'
p2381
sg12
F12.152604166666666
sg13
I48000
sbag4
(g5
g6
NtRp2382
(dp2383
g9
I2
sg10
S'/home/ubuntu/AAS/data/capstone_data/unsup_drums/drums_62.wav'
p2384
sg12
F11.429291666666666
sg13
I48000
sbag4
(g5
g6
NtRp2385
(dp2386
g9
I2
sg10
S'/home/ubuntu/AAS/data/capstone_data/unsup_drums/drums_63.wav'
p2387
sg12
F11.429291666666666
sg13
I48000
sbag4
(g5
g6
NtRp2388
(dp2389
g9
I2
sg10
S'/home/ubuntu/AAS/data/capstone_data/unsup_drums/drums_64.wav'
p2390
sg12
F8.4217708333333334
sg13
I48000
sbag4
(g5
g6
NtRp2391
(dp2392
g9
I2
sg10
S'/home/ubuntu/AAS/data/capstone_data/unsup_drums/drums_65.wav'
p2393
sg12
F6.0766666666666671
sg13
I48000
sbag4
(g5
g6
NtRp2394
(dp2395
g9
I2
sg10
S'/home/ubuntu/AAS/data/capstone_data/unsup_drums/drums_66.wav'
p2396
sg12
F10.666666666666666
sg13
I44100
sbag4
(g5
g6
NtRp2397
(dp2398
g9
I2
sg10
S'/home/ubuntu/AAS/data/capstone_data/unsup_drums/drums_67.wav'
p2399
sg12
F3.6930208333333332
sg13
I48000
sbag4
(g5
g6
NtRp2400
(dp2401
g9
I2
sg10
S'/home/ubuntu/AAS/data/capstone_data/unsup_drums/drums_68.wav'
p2402
sg12
F5.0533541666666668
sg13
I48000
sbag4
(g5
g6
NtRp2403
(dp2404
g9
I2
sg10
S'/home/ubuntu/AAS/data/capstone_data/unsup_drums/drums_69.wav'
p2405
sg12
F8
sg13
I44100
sbag4
(g5
g6
NtRp2406
(dp2407
g9
I2
sg10
S'/home/ubuntu/AAS/data/capstone_data/unsup_drums/drums_70.wav'
p2408
sg12
F21.818185941043083
sg13
I44100
sbag4
(g5
g6
NtRp2409
(dp2410
g9
I2
sg10
S'/home/ubuntu/AAS/data/capstone_data/unsup_drums/drums_71.wav'
p2411
sg12
F10.105979166666666
sg13
I48000
sbag4
(g5
g6
NtRp2412
(dp2413
g9
I2
sg10
S'/home/ubuntu/AAS/data/capstone_data/unsup_drums/drums_72.wav'
p2414
sg12
F3.6930208333333332
sg13
I48000
sbag4
(g5
g6
NtRp2415
(dp2416
g9
I2
sg10
S'/home/ubuntu/AAS/data/capstone_data/unsup_drums/drums_73.wav'
p2417
sg12
F11.250708333333334
sg13
I48000
sbag4
(g5
g6
NtRp2418
(dp2419
g9
I2
sg10
S'/home/ubuntu/AAS/data/capstone_data/unsup_drums/drums_74.wav'
p2420
sg12
F12.000708333333334
sg13
I48000
sbag4
(g5
g6
NtRp2421
(dp2422
g9
I2
sg10
S'/home/ubuntu/AAS/data/capstone_data/unsup_drums/drums_75.wav'
p2423
sg12
F7.3853333333333335
sg13
I48000
sbag4
(g5
g6
NtRp2424
(dp2425
g9
I2
sg10
S'/home/ubuntu/AAS/data/capstone_data/unsup_drums/drums_76.wav'
p2426
sg12
F12.000708333333334
sg13
I48000
sbag4
(g5
g6
NtRp2427
(dp2428
g9
I2
sg10
S'/home/ubuntu/AAS/data/capstone_data/unsup_drums/drums_77.wav'
p2429
sg12
F7.3853333333333335
sg13
I48000
sbag4
(g5
g6
NtRp2430
(dp2431
g9
I2
sg10
S'/home/ubuntu/AAS/data/capstone_data/unsup_drums/drums_78.wav'
p2432
sg12
F12.000708333333334
sg13
I48000
sbag4
(g5
g6
NtRp2433
(dp2434
g9
I2
sg10
S'/home/ubuntu/AAS/data/capstone_data/unsup_drums/drums_79.wav'
p2435
sg12
F7.3853333333333335
sg13
I48000
sbag4
(g5
g6
NtRp2436
(dp2437
g9
I2
sg10
S'/home/ubuntu/AAS/data/capstone_data/unsup_drums/drums_80.wav'
p2438
sg12
F10.105979166666666
sg13
I48000
sbag4
(g5
g6
NtRp2439
(dp2440
g9
I2
sg10
S'/home/ubuntu/AAS/data/capstone_data/unsup_drums/drums_81.wav'
p2441
sg12
F10.434829931972789
sg13
I44100
sbag4
(g5
g6
NtRp2442
(dp2443
g9
I2
sg10
S'/home/ubuntu/AAS/data/capstone_data/unsup_drums/drums_82.wav'
p2444
sg12
F9.5999999999999996
sg13
I44100
sbag4
(g5
g6
NtRp2445
(dp2446
g9
I2
sg10
S'/home/ubuntu/AAS/data/capstone_data/unsup_drums/drums_83.wav'
p2447
sg12
F11.162789115646259
sg13
I44100
sbag4
(g5
g6
NtRp2448
(dp2449
g9
I2
sg10
S'/home/ubuntu/AAS/data/capstone_data/unsup_drums/drums_84.wav'
p2450
sg12
F7.3853333333333335
sg13
I48000
sbag4
(g5
g6
NtRp2451
(dp2452
g9
I2
sg10
S'/home/ubuntu/AAS/data/capstone_data/unsup_drums/drums_85.wav'
p2453
sg12
F3.6930208333333332
sg13
I48000
sbag4
(g5
g6
NtRp2454
(dp2455
g9
I2
sg10
S'/home/ubuntu/AAS/data/capstone_data/unsup_drums/drums_86.wav'
p2456
sg12
F7.3853333333333335
sg13
I48000
sbag4
(g5
g6
NtRp2457
(dp2458
g9
I2
sg10
S'/home/ubuntu/AAS/data/capstone_data/unsup_drums/drums_87.wav'
p2459
sg12
F11.429291666666666
sg13
I48000
sbag4
(g5
g6
NtRp2460
(dp2461
g9
I2
sg10
S'/home/ubuntu/AAS/data/capstone_data/unsup_drums/drums_88.wav'
p2462
sg12
F12.000708333333334
sg13
I48000
sbag4
(g5
g6
NtRp2463
(dp2464
g9
I2
sg10
S'/home/ubuntu/AAS/data/capstone_data/unsup_drums/drums_89.wav'
p2465
sg12
F11.429291666666666
sg13
I48000
sbag4
(g5
g6
NtRp2466
(dp2467
g9
I2
sg10
S'/home/ubuntu/AAS/data/capstone_data/unsup_drums/drums_90.wav'
p2468
sg12
F11.429291666666666
sg13
I48000
sbag4
(g5
g6
NtRp2469
(dp2470
g9
I2
sg10
S'/home/ubuntu/AAS/data/capstone_data/unsup_drums/drums_91.wav'
p2471
sg12
F12.000708333333334
sg13
I48000
sbag4
(g5
g6
NtRp2472
(dp2473
g9
I2
sg10
S'/home/ubuntu/AAS/data/capstone_data/unsup_drums/drums_92.wav'
p2474
sg12
F11.429270833333334
sg13
I48000
sbag4
(g5
g6
NtRp2475
(dp2476
g9
I2
sg10
S'/home/ubuntu/AAS/data/capstone_data/unsup_drums/drums_93.wav'
p2477
sg12
F14.769937499999999
sg13
I48000
sbag4
(g5
g6
NtRp2478
(dp2479
g9
I2
sg10
S'/home/ubuntu/AAS/data/capstone_data/unsup_drums/drums_94.wav'
p2480
sg12
F7.3853333333333335
sg13
I48000
sbag4
(g5
g6
NtRp2481
(dp2482
g9
I2
sg10
S'/home/ubuntu/AAS/data/capstone_data/unsup_drums/drums_95.wav'
p2483
sg12
F7.3853333333333335
sg13
I48000
sbag4
(g5
g6
NtRp2484
(dp2485
g9
I2
sg10
S'/home/ubuntu/AAS/data/capstone_data/unsup_drums/drums_96.wav'
p2486
sg12
F9.9675510204081625
sg13
I44100
sbag4
(g5
g6
NtRp2487
(dp2488
g9
I2
sg10
S'/home/ubuntu/AAS/data/capstone_data/unsup_drums/drums_97.wav'
p2489
sg12
F5.3340416666666668
sg13
I48000
sbag4
(g5
g6
NtRp2490
(dp2491
g9
I2
sg10
S'/home/ubuntu/AAS/data/capstone_data/unsup_drums/drums_98.wav'
p2492
sg12
F21.758185941043084
sg13
I44100
sbag4
(g5
g6
NtRp2493
(dp2494
g9
I2
sg10
S'/home/ubuntu/AAS/data/capstone_data/unsup_drums/drums_99.wav'
p2495
sg12
F7.3853333333333335
sg13
I48000
sbag4
(g5
g6
NtRp2496
(dp2497
g9
I2
sg10
S'/home/ubuntu/AAS/data/capstone_data/unsup_drums/drums_100.wav'
p2498
sg12
F10.105979166666666
sg13
I48000
sbag4
(g5
g6
NtRp2499
(dp2500
g9
I2
sg10
S'/home/ubuntu/AAS/data/capstone_data/unsup_drums/drums_101.wav'
p2501
sg12
F7.3853333333333335
sg13
I48000
sbag4
(g5
g6
NtRp2502
(dp2503
g9
I2
sg10
S'/home/ubuntu/AAS/data/capstone_data/unsup_drums/drums_102.wav'
p2504
sg12
F6.0007083333333338
sg13
I48000
sbag4
(g5
g6
NtRp2505
(dp2506
g9
I2
sg10
S'/home/ubuntu/AAS/data/capstone_data/unsup_drums/drums_103.wav'
p2507
sg12
F2.0346041666666665
sg13
I48000
sbag4
(g5
g6
NtRp2508
(dp2509
g9
I2
sg10
S'/home/ubuntu/AAS/data/capstone_data/unsup_drums/drums_104.wav'
p2510
sg12
F5.7149999999999999
sg13
I48000
sbag4
(g5
g6
NtRp2511
(dp2512
g9
I2
sg10
S'/home/ubuntu/AAS/data/capstone_data/unsup_drums/drums_105.wav'
p2513
sg12
F3.9024489795918367
sg13
I44100
sbag4
(g5
g6
NtRp2514
(dp2515
g9
I2
sg10
S'/home/ubuntu/AAS/data/capstone_data/unsup_drums/drums_106.wav'
p2516
sg12
F5.7149999999999999
sg13
I48000
sbag4
(g5
g6
NtRp2517
(dp2518
g9
I2
sg10
S'/home/ubuntu/AAS/data/capstone_data/unsup_drums/drums_107.wav'
p2519
sg12
F4.0685208333333334
sg13
I48000
sbag4
(g5
g6
NtRp2520
(dp2521
g9
I2
sg10
S'/home/ubuntu/AAS/data/capstone_data/unsup_drums/drums_108.wav'
p2522
sg12
F3.6930208333333332
sg13
I48000
sbag4
(g5
g6
NtRp2523
(dp2524
g9
I2
sg10
S'/home/ubuntu/AAS/data/capstone_data/unsup_drums/drums_109.wav'
p2525
sg12
F6.0007083333333338
sg13
I48000
sbag4
(g5
g6
NtRp2526
(dp2527
g9
I2
sg10
S'/home/ubuntu/AAS/data/capstone_data/unsup_drums/drums_110.wav'
p2528
sg12
F10.105979166666666
sg13
I48000
sbag4
(g5
g6
NtRp2529
(dp2530
g9
I2
sg10
S'/home/ubuntu/AAS/data/capstone_data/unsup_drums/drums_111.wav'
p2531
sg12
F7.3853333333333335
sg13
I48000
sbag4
(g5
g6
NtRp2532
(dp2533
g9
I2
sg10
S'/home/ubuntu/AAS/data/capstone_data/unsup_drums/drums_112.wav'
p2534
sg12
F5.3340416666666668
sg13
I48000
sbag4
(g5
g6
NtRp2535
(dp2536
g9
I2
sg10
S'/home/ubuntu/AAS/data/capstone_data/unsup_drums/drums_113.wav'
p2537
sg12
F10.549455782312926
sg13
I44100
sbag4
(g5
g6
NtRp2538
(dp2539
g9
I2
sg10
S'/home/ubuntu/AAS/data/capstone_data/unsup_drums/drums_114.wav'
p2540
sg12
F9.1682539682539677
sg13
I44100
sbag4
(g5
g6
NtRp2541
(dp2542
g9
I2
sg10
S'/home/ubuntu/AAS/data/capstone_data/unsup_drums/drums_115.wav'
p2543
sg12
F4.5714739229024941
sg13
I44100
sbag4
(g5
g6
NtRp2544
(dp2545
g9
I2
sg10
S'/home/ubuntu/AAS/data/capstone_data/unsup_drums/drums_116.wav'
p2546
sg12
F5.5814058956916099
sg13
I44100
sbag4
(g5
g6
NtRp2547
(dp2548
g9
I2
sg10
S'/home/ubuntu/AAS/data/capstone_data/unsup_drums/drums_117.wav'
p2549
sg12
F20.210544217687076
sg13
I44100
sbag4
(g5
g6
NtRp2550
(dp2551
g9
I2
sg10
S'/home/ubuntu/AAS/data/capstone_data/unsup_drums/drums_118.wav'
p2552
sg12
F10.667395833333334
sg13
I48000
sbag4
(g5
g6
NtRp2553
(dp2554
g9
I2
sg10
S'/home/ubuntu/AAS/data/capstone_data/unsup_drums/drums_119.wav'
p2555
sg12
F8.9721768707482994
sg13
I44100
sbag4
(g5
g6
NtRp2556
(dp2557
g9
I2
sg10
S'/home/ubuntu/AAS/data/capstone_data/unsup_drums/drums_120.wav'
p2558
sg12
F3.6930208333333332
sg13
I48000
sbag4
(g5
g6
NtRp2559
(dp2560
g9
I2
sg10
S'/home/ubuntu/AAS/data/capstone_data/unsup_drums/drums_121.wav'
p2561
sg12
F10.105979166666666
sg13
I48000
sbag4
(g5
g6
NtRp2562
(dp2563
g9
I2
sg10
S'/home/ubuntu/AAS/data/capstone_data/unsup_drums/drums_122.wav'
p2564
sg12
F5.7149999999999999
sg13
I48000
sbag4
(g5
g6
NtRp2565
(dp2566
g9
I2
sg10
S'/home/ubuntu/AAS/data/capstone_data/unsup_drums/drums_123.wav'
p2567
sg12
F4.0685208333333334
sg13
I48000
sbag4
(g5
g6
NtRp2568
(dp2569
g9
I2
sg10
S'/home/ubuntu/AAS/data/capstone_data/unsup_drums/drums_124.wav'
p2570
sg12
F6.1024166666666666
sg13
I48000
sbag4
(g5
g6
NtRp2571
(dp2572
g9
I2
sg10
S'/home/ubuntu/AAS/data/capstone_data/unsup_drums/drums_125.wav'
p2573
sg12
F5.7149999999999999
sg13
I48000
sbag4
(g5
g6
NtRp2574
(dp2575
g9
I2
sg10
S'/home/ubuntu/AAS/data/capstone_data/unsup_drums/drums_126.wav'
p2576
sg12
F10.105979166666666
sg13
I48000
sbag4
(g5
g6
NtRp2577
(dp2578
g9
I2
sg10
S'/home/ubuntu/AAS/data/capstone_data/unsup_drums/drums_127.wav'
p2579
sg12
F3.6930208333333332
sg13
I48000
sbag4
(g5
g6
NtRp2580
(dp2581
g9
I2
sg10
S'/home/ubuntu/AAS/data/capstone_data/unsup_drums/drums_128.wav'
p2582
sg12
F9.9587528344671199
sg13
I44100
sbag4
(g5
g6
NtRp2583
(dp2584
g9
I2
sg10
S'/home/ubuntu/AAS/data/capstone_data/unsup_drums/drums_129.wav'
p2585
sg12
F20.869569160997731
sg13
I44100
sbag4
(g5
g6
NtRp2586
(dp2587
g9
I2
sg10
S'/home/ubuntu/AAS/data/capstone_data/unsup_drums/drums_130.wav'
p2588
sg12
F5.3340416666666668
sg13
I48000
sbag4
(g5
g6
NtRp2589
(dp2590
g9
I2
sg10
S'/home/ubuntu/AAS/data/capstone_data/unsup_drums/drums_131.wav'
p2591
sg12
F7.3846258503401359
sg13
I44100
sbag4
(g5
g6
NtRp2592
(dp2593
g9
I2
sg10
S'/home/ubuntu/AAS/data/capstone_data/unsup_drums/drums_132.wav'
p2594
sg12
F5.6470521541950109
sg13
I44100
sbag4
(g5
g6
NtRp2595
(dp2596
g9
I2
sg10
S'/home/ubuntu/AAS/data/capstone_data/unsup_drums/drums_133.wav'
p2597
sg12
F10.667375
sg13
I48000
sbag4
(g5
g6
NtRp2598
(dp2599
g9
I2
sg10
S'/home/ubuntu/AAS/data/capstone_data/unsup_drums/drums_134.wav'
p2600
sg12
F3.8709750566893426
sg13
I44100
sbag4
(g5
g6
NtRp2601
(dp2602
g9
I2
sg10
S'/home/ubuntu/AAS/data/capstone_data/unsup_drums/drums_135.wav'
p2603
sg12
F10.140090702947846
sg13
I44100
sbag4
(g5
g6
NtRp2604
(dp2605
g9
I2
sg10
S'/home/ubuntu/AAS/data/capstone_data/unsup_drums/drums_136.wav'
p2606
sg12
F11.429291666666666
sg13
I48000
sbag4
(g5
g6
NtRp2607
(dp2608
g9
I2
sg10
S'/home/ubuntu/AAS/data/capstone_data/unsup_drums/drums_137.wav'
p2609
sg12
F8.1363125000000007
sg13
I48000
sbag4
(g5
g6
NtRp2610
(dp2611
g9
I2
sg10
S'/home/ubuntu/AAS/data/capstone_data/unsup_drums/drums_138.wav'
p2612
sg12
F12.152604166666666
sg13
I48000
sbag4
(g5
g6
NtRp2613
(dp2614
g9
I2
sg10
S'/home/ubuntu/AAS/data/capstone_data/unsup_drums/drums_139.wav'
p2615
sg12
F12.152604166666666
sg13
I48000
sbag4
(g5
g6
NtRp2616
(dp2617
g9
I2
sg10
S'/home/ubuntu/AAS/data/capstone_data/unsup_drums/drums_140.wav'
p2618
sg12
F10.105979166666666
sg13
I48000
sbag4
(g5
g6
NtRp2619
(dp2620
g9
I2
sg10
S'/home/ubuntu/AAS/data/capstone_data/unsup_drums/drums_141.wav'
p2621
sg12
F12.152604166666666
sg13
I48000
sbag4
(g5
g6
NtRp2622
(dp2623
g9
I2
sg10
S'/home/ubuntu/AAS/data/capstone_data/unsup_drums/drums_142.wav'
p2624
sg12
F4.0685000000000002
sg13
I48000
sbag4
(g5
g6
NtRp2625
(dp2626
g9
I2
sg10
S'/home/ubuntu/AAS/data/capstone_data/unsup_drums/drums_143.wav'
p2627
sg12
F3.8709750566893426
sg13
I44100
sbag4
(g5
g6
NtRp2628
(dp2629
g9
I2
sg10
S'/home/ubuntu/AAS/data/capstone_data/unsup_drums/drums_144.wav'
p2630
sg12
F11.429270833333334
sg13
I48000
sbag4
(g5
g6
NtRp2631
(dp2632
g9
I2
sg10
S'/home/ubuntu/AAS/data/capstone_data/unsup_drums/drums_145.wav'
p2633
sg12
F9.889115646258503
sg13
I44100
sbag4
(g5
g6
NtRp2634
(dp2635
g9
I2
sg10
S'/home/ubuntu/AAS/data/capstone_data/unsup_drums/drums_146.wav'
p2636
sg12
F21.334041666666668
sg13
I48000
sbag4
(g5
g6
NtRp2637
(dp2638
g9
I2
sg10
S'/home/ubuntu/AAS/data/capstone_data/unsup_drums/drums_147.wav'
p2639
sg12
F20.210544217687076
sg13
I44100
sbag4
(g5
g6
NtRp2640
(dp2641
g9
I2
sg10
S'/home/ubuntu/AAS/data/capstone_data/unsup_drums/drums_148.wav'
p2642
sg12
F3.9344444444444444
sg13
I44100
sbag4
(g5
g6
NtRp2643
(dp2644
g9
I2
sg10
S'/home/ubuntu/AAS/data/capstone_data/unsup_drums/drums_149.wav'
p2645
sg12
F10.105979166666666
sg13
I48000
sbag4
(g5
g6
NtRp2646
(dp2647
g9
I2
sg10
S'/home/ubuntu/AAS/data/capstone_data/unsup_drums/drums_150.wav'
p2648
sg12
F9.3557823129251698
sg13
I44100
sbag4
(g5
g6
NtRp2649
(dp2650
g9
I2
sg10
S'/home/ubuntu/AAS/data/capstone_data/unsup_drums/drums_151.wav'
p2651
sg12
F21.333333333333332
sg13
I44100
sbag4
(g5
g6
NtRp2652
(dp2653
g9
I2
sg10
S'/home/ubuntu/AAS/data/capstone_data/unsup_drums/drums_152.wav'
p2654
sg12
F10.667395833333334
sg13
I48000
sbag4
(g5
g6
NtRp2655
(dp2656
g9
I2
sg10
S'/home/ubuntu/AAS/data/capstone_data/unsup_drums/drums_153.wav'
p2657
sg12
F6.1023958333333335
sg13
I48000
sbag4
(g5
g6
NtRp2658
(dp2659
g9
I2
sg10
S'/home/ubuntu/AAS/data/capstone_data/unsup_drums/drums_154.wav'
p2660
sg12
F11.429291666666666
sg13
I48000
sbag4
(g5
g6
NtRp2661
(dp2662
g9
I2
sg10
S'/home/ubuntu/AAS/data/capstone_data/unsup_drums/drums_155.wav'
p2663
sg12
F12.152604166666666
sg13
I48000
sbag4
(g5
g6
NtRp2664
(dp2665
g9
I2
sg10
S'/home/ubuntu/AAS/data/capstone_data/unsup_drums/drums_156.wav'
p2666
sg12
F8.4217708333333334
sg13
I48000
sbag4
(g5
g6
NtRp2667
(dp2668
g9
I2
sg10
S'/home/ubuntu/AAS/data/capstone_data/unsup_drums/drums_157.wav'
p2669
sg12
F12.152625
sg13
I48000
sbag4
(g5
g6
NtRp2670
(dp2671
g9
I2
sg10
S'/home/ubuntu/AAS/data/capstone_data/unsup_drums/drums_158.wav'
p2672
sg12
F3.6930208333333332
sg13
I48000
sbag4
(g5
g6
NtRp2673
(dp2674
g9
I2
sg10
S'/home/ubuntu/AAS/data/capstone_data/unsup_drums/drums_159.wav'
p2675
sg12
F12.152604166666666
sg13
I48000
sbag4
(g5
g6
NtRp2676
(dp2677
g9
I2
sg10
S'/home/ubuntu/AAS/data/capstone_data/unsup_drums/drums_160.wav'
p2678
sg12
F21.333333333333332
sg13
I44100
sbag4
(g5
g6
NtRp2679
(dp2680
g9
I2
sg10
S'/home/ubuntu/AAS/data/capstone_data/unsup_drums/drums_161.wav'
p2681
sg12
F11.429291666666666
sg13
I48000
sbag4
(g5
g6
NtRp2682
(dp2683
g9
I2
sg10
S'/home/ubuntu/AAS/data/capstone_data/unsup_drums/drums_162.wav'
p2684
sg12
F8.1363125000000007
sg13
I48000
sbag4
(g5
g6
NtRp2685
(dp2686
g9
I2
sg10
S'/home/ubuntu/AAS/data/capstone_data/unsup_drums/drums_163.wav'
p2687
sg12
F22.069115646258503
sg13
I44100
sbag4
(g5
g6
NtRp2688
(dp2689
g9
I2
sg10
S'/home/ubuntu/AAS/data/capstone_data/unsup_drums/drums_164.wav'
p2690
sg12
F10.667375
sg13
I48000
sbag4
(g5
g6
NtRp2691
(dp2692
g9
I2
sg10
S'/home/ubuntu/AAS/data/capstone_data/unsup_drums/drums_165.wav'
p2693
sg12
F12.272471655328799
sg13
I44100
sbag4
(g5
g6
NtRp2694
(dp2695
g9
I2
sg10
S'/home/ubuntu/AAS/data/capstone_data/unsup_drums/drums_166.wav'
p2696
sg12
F10.105979166666666
sg13
I48000
sbag4
(g5
g6
NtRp2697
(dp2698
g9
I2
sg10
S'/home/ubuntu/AAS/data/capstone_data/unsup_drums/drums_167.wav'
p2699
sg12
F3.75
sg13
I44100
sbag4
(g5
g6
NtRp2700
(dp2701
g9
I2
sg10
S'/home/ubuntu/AAS/data/capstone_data/unsup_drums/drums_168.wav'
p2702
sg12
F8
sg13
I44100
sbag4
(g5
g6
NtRp2703
(dp2704
g9
I2
sg10
S'/home/ubuntu/AAS/data/capstone_data/unsup_drums/drums_169.wav'
p2705
sg12
F9.1048072562358282
sg13
I44100
sbag4
(g5
g6
NtRp2706
(dp2707
g9
I2
sg10
S'/home/ubuntu/AAS/data/capstone_data/unsup_drums/drums_170.wav'
p2708
sg12
F8.5721458333333338
sg13
I48000
sbag4
(g5
g6
NtRp2709
(dp2710
g9
I2
sg10
S'/home/ubuntu/AAS/data/capstone_data/unsup_drums/drums_171.wav'
p2711
sg12
F10.787229166666666
sg13
I48000
sbag4
(g5
g6
NtRp2712
(dp2713
g9
I2
sg10
S'/home/ubuntu/AAS/data/capstone_data/unsup_drums/drums_172.wav'
p2714
sg12
F10.787229166666666
sg13
I48000
sbag4
(g5
g6
NtRp2715
(dp2716
g9
I2
sg10
S'/home/ubuntu/AAS/data/capstone_data/unsup_drums/drums_173.wav'
p2717
sg12
F8.5721458333333338
sg13
I48000
sbag4
(g5
g6
NtRp2718
(dp2719
g9
I2
sg10
S'/home/ubuntu/AAS/data/capstone_data/unsup_drums/drums_174.wav'
p2720
sg12
F7.8688662131519278
sg13
I44100
sbag4
(g5
g6
NtRp2721
(dp2722
g9
I2
sg10
S'/home/ubuntu/AAS/data/capstone_data/unsup_drums/drums_175.wav'
p2723
sg12
F4
sg13
I44100
sbag4
(g5
g6
NtRp2724
(dp2725
g9
I2
sg10
S'/home/ubuntu/AAS/data/capstone_data/unsup_drums/drums_176.wav'
p2726
sg12
F3.8709750566893426
sg13
I44100
sbag4
(g5
g6
NtRp2727
(dp2728
g9
I2
sg10
S'/home/ubuntu/AAS/data/capstone_data/unsup_drums/drums_177.wav'
p2729
sg12
F3.9344444444444444
sg13
I44100
sbag4
(g5
g6
NtRp2730
(dp2731
g9
I2
sg10
S'/home/ubuntu/AAS/data/capstone_data/unsup_drums/drums_178.wav'
p2732
sg12
F16
sg13
I44100
sbag4
(g5
g6
NtRp2733
(dp2734
g9
I2
sg10
S'/home/ubuntu/AAS/data/capstone_data/unsup_drums/drums_179.wav'
p2735
sg12
F7.3853333333333335
sg13
I48000
sbag4
(g5
g6
NtRp2736
(dp2737
g9
I2
sg10
S'/home/ubuntu/AAS/data/capstone_data/unsup_drums/drums_180.wav'
p2738
sg12
F10.787229166666666
sg13
I48000
sbag4
(g5
g6
NtRp2739
(dp2740
g9
I2
sg10
S'/home/ubuntu/AAS/data/capstone_data/unsup_drums/drums_181.wav'
p2741
sg12
F8.5721458333333338
sg13
I48000
sbag4
(g5
g6
NtRp2742
(dp2743
g9
I2
sg10
S'/home/ubuntu/AAS/data/capstone_data/unsup_drums/drums_182.wav'
p2744
sg12
F8.5721458333333338
sg13
I48000
sbag4
(g5
g6
NtRp2745
(dp2746
g9
I2
sg10
S'/home/ubuntu/AAS/data/capstone_data/unsup_drums/drums_183.wav'
p2747
sg12
F10.787229166666666
sg13
I48000
sbag4
(g5
g6
NtRp2748
(dp2749
g9
I2
sg10
S'/home/ubuntu/AAS/data/capstone_data/unsup_drums/drums_184.wav'
p2750
sg12
F7.3853333333333335
sg13
I48000
sbag4
(g5
g6
NtRp2751
(dp2752
g9
I2
sg10
S'/home/ubuntu/AAS/data/capstone_data/unsup_drums/drums_185.wav'
p2753
sg12
F16
sg13
I44100
sbag4
(g5
g6
NtRp2754
(dp2755
g9
I2
sg10
S'/home/ubuntu/AAS/data/capstone_data/unsup_drums/drums_186.wav'
p2756
sg12
F15.737709750566893
sg13
I44100
sbag4
(g5
g6
NtRp2757
(dp2758
g9
I2
sg10
S'/home/ubuntu/AAS/data/capstone_data/unsup_drums/drums_187.wav'
p2759
sg12
F7.6190476190476186
sg13
I44100
sbag4
(g5
g6
NtRp2760
(dp2761
g9
I2
sg10
S'/home/ubuntu/AAS/data/capstone_data/unsup_drums/drums_188.wav'
p2762
sg12
F8
sg13
I44100
sbag4
(g5
g6
NtRp2763
(dp2764
g9
I2
sg10
S'/home/ubuntu/AAS/data/capstone_data/unsup_drums/drums_189.wav'
p2765
sg12
F8
sg13
I44100
sbag4
(g5
g6
NtRp2766
(dp2767
g9
I2
sg10
S'/home/ubuntu/AAS/data/capstone_data/unsup_drums/drums_190.wav'
p2768
sg12
F8
sg13
I44100
sbag4
(g5
g6
NtRp2769
(dp2770
g9
I2
sg10
S'/home/ubuntu/AAS/data/capstone_data/unsup_drums/drums_191.wav'
p2771
sg12
F5.393979166666667
sg13
I48000
sbag4
(g5
g6
NtRp2772
(dp2773
g9
I2
sg10
S'/home/ubuntu/AAS/data/capstone_data/unsup_drums/drums_192.wav'
p2774
sg12
F8.5721458333333338
sg13
I48000
sbag4
(g5
g6
NtRp2775
(dp2776
g9
I2
sg10
S'/home/ubuntu/AAS/data/capstone_data/unsup_drums/drums_193.wav'
p2777
sg12
F8.5721458333333338
sg13
I48000
sbag4
(g5
g6
NtRp2778
(dp2779
g9
I2
sg10
S'/home/ubuntu/AAS/data/capstone_data/unsup_drums/drums_194.wav'
p2780
sg12
F8.5721458333333338
sg13
I48000
sbag4
(g5
g6
NtRp2781
(dp2782
g9
I2
sg10
S'/home/ubuntu/AAS/data/capstone_data/unsup_drums/drums_195.wav'
p2783
sg12
F8.5721458333333338
sg13
I48000
sbag4
(g5
g6
NtRp2784
(dp2785
g9
I2
sg10
S'/home/ubuntu/AAS/data/capstone_data/unsup_drums/drums_196.wav'
p2786
sg12
F5.393958333333333
sg13
I48000
sbag4
(g5
g6
NtRp2787
(dp2788
g9
I2
sg10
S'/home/ubuntu/AAS/data/capstone_data/unsup_drums/drums_197.wav'
p2789
sg12
F8
sg13
I44100
sbag4
(g5
g6
NtRp2790
(dp2791
g9
I2
sg10
S'/home/ubuntu/AAS/data/capstone_data/unsup_drums/drums_198.wav'
p2792
sg12
F8
sg13
I44100
sbag4
(g5
g6
NtRp2793
(dp2794
g9
I2
sg10
S'/home/ubuntu/AAS/data/capstone_data/unsup_drums/drums_199.wav'
p2795
sg12
F8
sg13
I44100
sbag4
(g5
g6
NtRp2796
(dp2797
g9
I2
sg10
S'/home/ubuntu/AAS/data/capstone_data/unsup_drums/drums_200.wav'
p2798
sg12
F16
sg13
I44100
sbag4
(g5
g6
NtRp2799
(dp2800
g9
I2
sg10
S'/home/ubuntu/AAS/data/capstone_data/unsup_drums/drums_201.wav'
p2801
sg12
F15.737709750566893
sg13
I44100
sbag4
(g5
g6
NtRp2802
(dp2803
g9
I2
sg10
S'/home/ubuntu/AAS/data/capstone_data/unsup_drums/drums_202.wav'
p2804
sg12
F10.787229166666666
sg13
I48000
sbag4
(g5
g6
NtRp2805
(dp2806
g9
I2
sg10
S'/home/ubuntu/AAS/data/capstone_data/unsup_drums/drums_203.wav'
p2807
sg12
F10.787229166666666
sg13
I48000
sbag4
(g5
g6
NtRp2808
(dp2809
g9
I2
sg10
S'/home/ubuntu/AAS/data/capstone_data/unsup_drums/drums_204.wav'
p2810
sg12
F9.5999999999999996
sg13
I44100
sbag4
(g5
g6
NtRp2811
(dp2812
g9
I2
sg10
S'/home/ubuntu/AAS/data/capstone_data/unsup_drums/drums_205.wav'
p2813
sg12
F5.393979166666667
sg13
I48000
sbag4
(g5
g6
NtRp2814
(dp2815
g9
I2
sg10
S'/home/ubuntu/AAS/data/capstone_data/unsup_drums/drums_206.wav'
p2816
sg12
F8.5721458333333338
sg13
I48000
sbag4
(g5
g6
NtRp2817
(dp2818
g9
I2
sg10
S'/home/ubuntu/AAS/data/capstone_data/unsup_drums/drums_207.wav'
p2819
sg12
F15.737709750566893
sg13
I44100
sbag4
(g5
g6
NtRp2820
(dp2821
g9
I2
sg10
S'/home/ubuntu/AAS/data/capstone_data/unsup_drums/drums_208.wav'
p2822
sg12
F16
sg13
I44100
sbaas.